
rx_AOA_cali.elf:     file format elf32-littleriscv


Disassembly of section .init:

08000000 <vector_base>:
 8000000:	6f 00 00 0c 7a 03 00 08 7a 03 00 08 e4 03 00 08     o...z...z.......
 8000010:	7a 03 00 08 7a 03 00 08 7a 03 00 08 c0 0e 00 08     z...z...z.......
 8000020:	7a 03 00 08 7a 03 00 08 7a 03 00 08 7a 03 00 08     z...z...z...z...
 8000030:	7a 03 00 08 7a 03 00 08 7a 03 00 08 7a 03 00 08     z...z...z...z...
 8000040:	7a 03 00 08 7a 03 00 08 7a 03 00 08 00 00 00 00     z...z...z.......
	...
 8000078:	d8 89 00 08 00 00 00 00 00 00 00 00 e2 8b 00 08     ................
	...

080000c0 <_start>:
 * Reset Handler called on controller reset
 */
_start:
    /* ===== Startup Stage 1 ===== */
    /* Disable Global Interrupt */
    csrc CSR_MSTATUS, MSTATUS_MIE
 80000c0:	30047073          	csrci	mstatus,8

    /* Initialize GP and TP */
    .option push
    .option norelax
    la gp, __global_pointer$
 80000c4:	00118197          	auipc	gp,0x118
 80000c8:	f2c18193          	addi	gp,gp,-212 # 8117ff0 <__global_pointer$>
    la tp, __tls_base
 80000cc:	00119217          	auipc	tp,0x119
 80000d0:	e8420213          	addi	tp,tp,-380 # 8118f50 <ucMaxSysCallPriority>
    addi a1, a1, 1
    j 1b
2:
#else
    /* Set correct sp for current cpu */
    la sp, _sp
 80000d4:	00140117          	auipc	sp,0x140
 80000d8:	f2c10113          	addi	sp,sp,-212 # 8140000 <_sp>
    /*
     * Set the the NMI base mnvec to share
     * with mtvec by setting CSR_MMISC_CTL
     * bit 9 NMI_CAUSE_FFF to 1
     */
    li t0, MMISC_CTL_NMI_CAUSE_FFF
 80000dc:	20000293          	li	t0,512
    csrs CSR_MMISC_CTL, t0
 80000e0:	7d02a073          	csrs	mmisc_ctl,t0

    /*
     * Intialize ECLIC vector interrupt
     * base address mtvt to vector_base
     */
    la t0, vector_base
 80000e4:	00000297          	auipc	t0,0x0
 80000e8:	f1c28293          	addi	t0,t0,-228 # 8000000 <vector_base>
    csrw CSR_MTVT, t0
 80000ec:	30729073          	csrw	mtvt,t0
     * Set ECLIC non-vector entry to be controlled
     * by mtvt2 CSR register.
     * Intialize ECLIC non-vector interrupt
     * base address mtvt2 to irq_entry.
     */
    la t0, irq_entry
 80000f0:	00000297          	auipc	t0,0x0
 80000f4:	21028293          	addi	t0,t0,528 # 8000300 <irq_entry>
    csrw CSR_MTVT2, t0
 80000f8:	7ec29073          	csrw	mtvt2,t0
    csrs CSR_MTVT2, 0x1
 80000fc:	7ec0e073          	csrsi	mtvt2,1
     * Due to settings above, Exception and NMI
     * will share common entry.
     * This early_exc_entry is only used during early
     * boot stage before main
     */
    la t0, early_exc_entry
 8000100:	00000297          	auipc	t0,0x0
 8000104:	10028293          	addi	t0,t0,256 # 8000200 <early_exc_entry>
    csrw CSR_MTVEC, t0
 8000108:	30529073          	csrw	mtvec,t0

    /* Set the interrupt processing mode to ECLIC mode */
    li t0, 0x3f
 800010c:	03f00293          	li	t0,63
    csrc CSR_MTVEC, t0
 8000110:	3052b073          	csrc	mtvec,t0
    csrs CSR_MTVEC, 0x3
 8000114:	3051e073          	csrsi	mtvec,3
    /* ===== Startup Stage 2 ===== */

    /* Enable FPU and Vector Unit if f/d/v exist in march */
#if defined(__riscv_flen) && __riscv_flen > 0
    /* Enable FPU, and set state to initial */
    li t0, MSTATUS_FS
 8000118:	6299                	lui	t0,0x6
    csrc mstatus, t0
 800011a:	3002b073          	csrc	mstatus,t0
    li t0, MSTATUS_FS_INITIAL
 800011e:	6289                	lui	t0,0x2
    csrs mstatus, t0
 8000120:	3002a073          	csrs	mstatus,t0
    li t0, MSTATUS_VS_INITIAL
    csrs mstatus, t0
#endif

    /* Enable mcycle and minstret counter */
    csrci CSR_MCOUNTINHIBIT, 0x5
 8000124:	3202f073          	csrci	mcountinhibit,5

08000128 <__init_common>:
    /* ===== Startup Stage 3 ===== */
    /*
     * Load text section from CODE ROM to CODE RAM
     * when text LMA is different with VMA
     */
    la a0, _text_lma
 8000128:	00000517          	auipc	a0,0x0
 800012c:	15850513          	addi	a0,a0,344 # 8000280 <_text>
    la a1, _text
 8000130:	00000597          	auipc	a1,0x0
 8000134:	15058593          	addi	a1,a1,336 # 8000280 <_text>
    /* If text LMA and VMA are equal
     * then no need to copy text section */
    beq a0, a1, 2f
 8000138:	02b50063          	beq	a0,a1,8000158 <__init_common+0x30>
    la a2, _etext
 800013c:	00018617          	auipc	a2,0x18
 8000140:	87c60613          	addi	a2,a2,-1924 # 80179b8 <_data_lma>
    bgeu a1, a2, 2f
 8000144:	00c5fa63          	bgeu	a1,a2,8000158 <__init_common+0x30>

1:
    /* Load code section if necessary */
    lw t0, (a0)
 8000148:	00052283          	lw	t0,0(a0)
    sw t0, (a1)
 800014c:	0055a023          	sw	t0,0(a1)
    addi a0, a0, 4
 8000150:	0511                	addi	a0,a0,4
    addi a1, a1, 4
 8000152:	0591                	addi	a1,a1,4
    bltu a1, a2, 1b
 8000154:	fec5eae3          	bltu	a1,a2,8000148 <__init_common+0x20>
2:
    /* Load data section */
    la a0, _data_lma
 8000158:	00018517          	auipc	a0,0x18
 800015c:	86050513          	addi	a0,a0,-1952 # 80179b8 <_data_lma>
    la a1, _data
 8000160:	00100597          	auipc	a1,0x100
 8000164:	ea058593          	addi	a1,a1,-352 # 8100000 <SpiImuTxDma_Buff>
    /* If data vma=lma, no need to copy */
    beq a0, a1, 2f
 8000168:	02b50063          	beq	a0,a1,8000188 <__init_common+0x60>
    la a2, _edata
 800016c:	00119617          	auipc	a2,0x119
 8000170:	de460613          	addi	a2,a2,-540 # 8118f50 <ucMaxSysCallPriority>
    bgeu a1, a2, 2f
 8000174:	00c5fa63          	bgeu	a1,a2,8000188 <__init_common+0x60>
1:
    lw t0, (a0)
 8000178:	00052283          	lw	t0,0(a0)
    sw t0, (a1)
 800017c:	0055a023          	sw	t0,0(a1)
    addi a0, a0, 4
 8000180:	0511                	addi	a0,a0,4
    addi a1, a1, 4
 8000182:	0591                	addi	a1,a1,4
    bltu a1, a2, 1b
 8000184:	fec5eae3          	bltu	a1,a2,8000178 <__init_common+0x50>
2:
    /* Clear bss section */
    la a0, __bss_start
 8000188:	00119517          	auipc	a0,0x119
 800018c:	dc850513          	addi	a0,a0,-568 # 8118f50 <ucMaxSysCallPriority>
    la a1, _end
 8000190:	00128597          	auipc	a1,0x128
 8000194:	4f458593          	addi	a1,a1,1268 # 8128684 <_end>
    bgeu a0, a1, 2f
 8000198:	00b57763          	bgeu	a0,a1,80001a6 <_start_premain>
1:
    sw zero, (a0)
 800019c:	00052023          	sw	zero,0(a0)
    addi a0, a0, 4
 80001a0:	0511                	addi	a0,a0,4
    bltu a0, a1, 1b
 80001a2:	feb56de3          	bltu	a0,a1,800019c <__init_common+0x74>

080001a6 <_start_premain>:
    /*
     * Call vendor defined SystemInit to
     * initialize the micro-controller system
     * SystemInit will just be called by boot cpu
     */
    call SystemInit
 80001a6:	006070ef          	jal	ra,80071ac <SystemInit>

    /* Call global constructors */
    la a0, __libc_fini_array
 80001aa:	00016517          	auipc	a0,0x16
 80001ae:	f2450513          	addi	a0,a0,-220 # 80160ce <__libc_fini_array>
    call atexit
 80001b2:	70d150ef          	jal	ra,80160be <atexit>
    /* Call C/C++ constructor start up code */
    call __libc_init_array
 80001b6:	74d150ef          	jal	ra,8016102 <__libc_init_array>

080001ba <__skip_init>:

__skip_init:
    /* Sync all harts at this function */
    call __sync_harts
 80001ba:	28ad                	jal	8000234 <__sync_harts>
    /* do pre-init steps before main */
    /* _premain_init will be called by each cpu
     * please make sure the implementation of __premain_int
     * considered this
     */
    call _premain_init
 80001bc:	76e070ef          	jal	ra,800792a <_premain_init>
     * set exception entry to correct exception
     * entry and jump to main.
     * And set the interrupt processing mode to
     * ECLIC mode
     */
    la t0, exc_entry
 80001c0:	00000297          	auipc	t0,0x0
 80001c4:	0c028293          	addi	t0,t0,192 # 8000280 <_text>
    csrw CSR_MTVEC, t0
 80001c8:	30529073          	csrw	mtvec,t0
    li t0, 0x3f
 80001cc:	03f00293          	li	t0,63
    csrc CSR_MTVEC, t0
 80001d0:	3052b073          	csrc	mtvec,t0
    csrs CSR_MTVEC, 0x3
 80001d4:	3051e073          	csrsi	mtvec,3

    /* BPU cold bringup need time, so enable BPU before enter to main */
    li t0, MMISC_CTL_BPU
 80001d8:	42a1                	li	t0,8
    csrs CSR_MMISC_CTL, t0
 80001da:	7d02a073          	csrs	mmisc_ctl,t0

    /* ===== Call SMP Main Function  ===== */
    /* argc = argv = 0 */
    li a0, 0
 80001de:	4501                	li	a0,0
    li a1, 0
 80001e0:	4581                	li	a1,0
#else
#ifdef RTOS_RTTHREAD
    
    call entry
#else
    call main
 80001e2:	5d3080ef          	jal	ra,8008fb4 <main>
#endif
#endif
    /* do post-main steps after main
     * this function will be called by each cpu */
    call _postmain_fini
 80001e6:	003070ef          	jal	ra,80079e8 <_postmain_fini>

080001ea <__amp_wait>:

__amp_wait:
1:
    wfi
 80001ea:	10500073          	wfi
    j 1b
 80001ee:	bff5                	j	80001ea <__amp_wait>
 80001f0:	00000013          	nop
 80001f4:	00000013          	nop
 80001f8:	00000013          	nop
 80001fc:	00000013          	nop

08000200 <early_exc_entry>:
/* Early boot exception entry before main */
.align 6
.global early_exc_entry
.type early_exc_entry, @function
early_exc_entry:
    wfi
 8000200:	10500073          	wfi
    j early_exc_entry
 8000204:	bff5                	j	8000200 <early_exc_entry>
	...

08000234 <__sync_harts>:
 */
#define CLINT_MSIP(base, hartid)    (*(volatile uint32_t *)((uintptr_t)((base) + ((hartid) * 4))))
#define SMP_CTRLREG(base, ofs)      (*(volatile uint32_t *)((uintptr_t)((base) + (ofs))))

__attribute__((section(".init"))) void __sync_harts(void)
{
 8000234:	1141                	addi	sp,sp,-16
 8000236:	c622                	sw	s0,12(sp)
 8000238:	0800                	addi	s0,sp,16
        __SMP_RWMB();
        
        while (CLINT_MSIP(clint_base, hartid) == 1);
    }
#endif
}
 800023a:	0001                	nop
 800023c:	4432                	lw	s0,12(sp)
 800023e:	0141                	addi	sp,sp,16
 8000240:	8082                	ret
	...

Disassembly of section .text:

08000280 <_text>:
/* In CLIC mode, the exeception entry must be 64bytes aligned */
.align 6
.global exc_entry
exc_entry:
    /* Save the caller saving registers (context) */
    SAVE_CONTEXT
 8000280:	34911173          	csrrw	sp,mscratchcswl,sp
 8000284:	715d                	addi	sp,sp,-80
 8000286:	c006                	sw	ra,0(sp)
 8000288:	c212                	sw	tp,4(sp)
 800028a:	c416                	sw	t0,8(sp)
 800028c:	c61a                	sw	t1,12(sp)
 800028e:	c81e                	sw	t2,16(sp)
 8000290:	ca2a                	sw	a0,20(sp)
 8000292:	cc2e                	sw	a1,24(sp)
 8000294:	ce32                	sw	a2,28(sp)
 8000296:	d036                	sw	a3,32(sp)
 8000298:	d23a                	sw	a4,36(sp)
 800029a:	d43e                	sw	a5,40(sp)
 800029c:	dc42                	sw	a6,56(sp)
 800029e:	de46                	sw	a7,60(sp)
 80002a0:	c0f2                	sw	t3,64(sp)
 80002a2:	c2f6                	sw	t4,68(sp)
 80002a4:	c4fa                	sw	t5,72(sp)
 80002a6:	c6fe                	sw	t6,76(sp)
    /* Save the necessary CSR registers */
    SAVE_CSR_CONTEXT
 80002a8:	7ee5d073          	csrwi	pushmcause,11
 80002ac:	7ef65073          	csrwi	pushmepc,12
 80002b0:	7eb6d073          	csrwi	pushmsubm,13
    /*
     * Set the exception handler function arguments
     * argument 1: mcause value
     * argument 2: current stack point(SP) value
     */
    csrr a0, mcause
 80002b4:	34202573          	csrr	a0,mcause
    mv a1, sp
 80002b8:	858a                	mv	a1,sp
    /*
     * TODO: Call the exception handler function
     * By default, the function template is provided in
     * system_Device.c, you can adjust it as you want
     */
    call core_exception_handler
 80002ba:	0ec070ef          	jal	ra,80073a6 <core_exception_handler>

    /* Restore the necessary CSR registers */
    RESTORE_CSR_CONTEXT
 80002be:	52d2                	lw	t0,52(sp)
 80002c0:	7c429073          	csrw	msubm,t0
 80002c4:	52c2                	lw	t0,48(sp)
 80002c6:	34129073          	csrw	mepc,t0
 80002ca:	52b2                	lw	t0,44(sp)
 80002cc:	34229073          	csrw	mcause,t0
    /* Restore the caller saving registers (context) */
    RESTORE_CONTEXT
 80002d0:	4082                	lw	ra,0(sp)
 80002d2:	4212                	lw	tp,4(sp)
 80002d4:	42a2                	lw	t0,8(sp)
 80002d6:	4332                	lw	t1,12(sp)
 80002d8:	43c2                	lw	t2,16(sp)
 80002da:	4552                	lw	a0,20(sp)
 80002dc:	45e2                	lw	a1,24(sp)
 80002de:	4672                	lw	a2,28(sp)
 80002e0:	5682                	lw	a3,32(sp)
 80002e2:	5712                	lw	a4,36(sp)
 80002e4:	57a2                	lw	a5,40(sp)
 80002e6:	5862                	lw	a6,56(sp)
 80002e8:	58f2                	lw	a7,60(sp)
 80002ea:	4e06                	lw	t3,64(sp)
 80002ec:	4e96                	lw	t4,68(sp)
 80002ee:	4f26                	lw	t5,72(sp)
 80002f0:	4fb6                	lw	t6,76(sp)
 80002f2:	6161                	addi	sp,sp,80
 80002f4:	34911173          	csrrw	sp,mscratchcswl,sp

    /* Return to regular code */
    mret
 80002f8:	30200073          	mret
 80002fc:	0000                	unimp
	...

08000300 <irq_entry>:
.align 2
.global irq_entry
/* This label will be set to MTVT2 register */
irq_entry:
    /* Save the caller saving registers (context) */
    SAVE_CONTEXT
 8000300:	34911173          	csrrw	sp,mscratchcswl,sp
 8000304:	715d                	addi	sp,sp,-80
 8000306:	c006                	sw	ra,0(sp)
 8000308:	c212                	sw	tp,4(sp)
 800030a:	c416                	sw	t0,8(sp)
 800030c:	c61a                	sw	t1,12(sp)
 800030e:	c81e                	sw	t2,16(sp)
 8000310:	ca2a                	sw	a0,20(sp)
 8000312:	cc2e                	sw	a1,24(sp)
 8000314:	ce32                	sw	a2,28(sp)
 8000316:	d036                	sw	a3,32(sp)
 8000318:	d23a                	sw	a4,36(sp)
 800031a:	d43e                	sw	a5,40(sp)
 800031c:	dc42                	sw	a6,56(sp)
 800031e:	de46                	sw	a7,60(sp)
 8000320:	c0f2                	sw	t3,64(sp)
 8000322:	c2f6                	sw	t4,68(sp)
 8000324:	c4fa                	sw	t5,72(sp)
 8000326:	c6fe                	sw	t6,76(sp)
    /* Save the necessary CSR registers */
    SAVE_CSR_CONTEXT
 8000328:	7ee5d073          	csrwi	pushmcause,11
 800032c:	7ef65073          	csrwi	pushmepc,12
 8000330:	7eb6d073          	csrwi	pushmsubm,13
    /* This special CSR read/write operation, which is actually
     * claim the CLIC to find its pending highest ID, if the ID
     * is not 0, then automatically enable the mstatus.MIE, and
     * jump to its vector-entry-label, and update the link register
     */
    csrrw ra, CSR_JALMNXTI, ra
 8000334:	7ed090f3          	csrrw	ra,jalmnxti,ra

    /* Critical section with interrupts disabled */
    DISABLE_MIE
 8000338:	30047073          	csrci	mstatus,8

    /* Restore the necessary CSR registers */
    RESTORE_CSR_CONTEXT
 800033c:	52d2                	lw	t0,52(sp)
 800033e:	7c429073          	csrw	msubm,t0
 8000342:	52c2                	lw	t0,48(sp)
 8000344:	34129073          	csrw	mepc,t0
 8000348:	52b2                	lw	t0,44(sp)
 800034a:	34229073          	csrw	mcause,t0
    /* Restore the caller saving registers (context) */
    RESTORE_CONTEXT
 800034e:	4082                	lw	ra,0(sp)
 8000350:	4212                	lw	tp,4(sp)
 8000352:	42a2                	lw	t0,8(sp)
 8000354:	4332                	lw	t1,12(sp)
 8000356:	43c2                	lw	t2,16(sp)
 8000358:	4552                	lw	a0,20(sp)
 800035a:	45e2                	lw	a1,24(sp)
 800035c:	4672                	lw	a2,28(sp)
 800035e:	5682                	lw	a3,32(sp)
 8000360:	5712                	lw	a4,36(sp)
 8000362:	57a2                	lw	a5,40(sp)
 8000364:	5862                	lw	a6,56(sp)
 8000366:	58f2                	lw	a7,60(sp)
 8000368:	4e06                	lw	t3,64(sp)
 800036a:	4e96                	lw	t4,68(sp)
 800036c:	4f26                	lw	t5,72(sp)
 800036e:	4fb6                	lw	t6,76(sp)
 8000370:	6161                	addi	sp,sp,80
 8000372:	34911173          	csrrw	sp,mscratchcswl,sp

    /* Return to regular code */
    mret
 8000376:	30200073          	mret

0800037a <default_intexc_handler>:
/* Default Handler for Exceptions / Interrupts */
.global default_intexc_handler
Undef_Handler:
default_intexc_handler:
1:
    j 1b
 800037a:	a001                	j	800037a <default_intexc_handler>
 800037c:	00000013          	nop

08000380 <prvPortStartFirstTask>:
    /* Setup Interrupt Stack using
       The stack that was used by main()
       before the scheduler is started is
       no longer required after the scheduler is started.
       Interrupt stack pointer is stored in CSR_MSCRATCH */
    la t0, _sp
 8000380:	00140297          	auipc	t0,0x140
 8000384:	c8028293          	addi	t0,t0,-896 # 8140000 <_sp>
    csrw CSR_MSCRATCH, t0
 8000388:	34029073          	csrw	mscratch,t0
    LOAD sp, pxCurrentTCB           /* Load pxCurrentTCB. */
 800038c:	00119117          	auipc	sp,0x119
 8000390:	be812103          	lw	sp,-1048(sp) # 8118f74 <pxCurrentTCB>
    LOAD sp, 0x0(sp)                /* Read sp from first TCB member */
 8000394:	4102                	lw	sp,0(sp)

    /* Pop PC from stack and set MEPC */
    LOAD t0,  0  * REGBYTES(sp)
 8000396:	4282                	lw	t0,0(sp)
    csrw CSR_MEPC, t0
 8000398:	34129073          	csrw	mepc,t0
    /* Pop mstatus from stack and set it */
    LOAD t0,  (portRegNum - 1)  * REGBYTES(sp)
 800039c:	52d6                	lw	t0,116(sp)
    csrw CSR_MSTATUS, t0
 800039e:	30029073          	csrw	mstatus,t0
    /* Interrupt still disable here */
    /* Restore Registers from Stack */
    LOAD x1,  1  * REGBYTES(sp)    /* RA */
 80003a2:	4092                	lw	ra,4(sp)
    LOAD x5,  2  * REGBYTES(sp)
 80003a4:	42a2                	lw	t0,8(sp)
    LOAD x6,  3  * REGBYTES(sp)
 80003a6:	4332                	lw	t1,12(sp)
    LOAD x7,  4  * REGBYTES(sp)
 80003a8:	43c2                	lw	t2,16(sp)
    LOAD x8,  5  * REGBYTES(sp)
 80003aa:	4452                	lw	s0,20(sp)
    LOAD x9,  6  * REGBYTES(sp)
 80003ac:	44e2                	lw	s1,24(sp)
    LOAD x10, 7  * REGBYTES(sp)
 80003ae:	4572                	lw	a0,28(sp)
    LOAD x11, 8  * REGBYTES(sp)
 80003b0:	5582                	lw	a1,32(sp)
    LOAD x12, 9  * REGBYTES(sp)
 80003b2:	5612                	lw	a2,36(sp)
    LOAD x13, 10 * REGBYTES(sp)
 80003b4:	56a2                	lw	a3,40(sp)
    LOAD x14, 11 * REGBYTES(sp)
 80003b6:	5732                	lw	a4,44(sp)
    LOAD x15, 12 * REGBYTES(sp)
 80003b8:	57c2                	lw	a5,48(sp)
#ifndef __riscv_32e
    LOAD x16, 13 * REGBYTES(sp)
 80003ba:	5852                	lw	a6,52(sp)
    LOAD x17, 14 * REGBYTES(sp)
 80003bc:	58e2                	lw	a7,56(sp)
    LOAD x18, 15 * REGBYTES(sp)
 80003be:	5972                	lw	s2,60(sp)
    LOAD x19, 16 * REGBYTES(sp)
 80003c0:	4986                	lw	s3,64(sp)
    LOAD x20, 17 * REGBYTES(sp)
 80003c2:	4a16                	lw	s4,68(sp)
    LOAD x21, 18 * REGBYTES(sp)
 80003c4:	4aa6                	lw	s5,72(sp)
    LOAD x22, 19 * REGBYTES(sp)
 80003c6:	4b36                	lw	s6,76(sp)
    LOAD x23, 20 * REGBYTES(sp)
 80003c8:	4bc6                	lw	s7,80(sp)
    LOAD x24, 21 * REGBYTES(sp)
 80003ca:	4c56                	lw	s8,84(sp)
    LOAD x25, 22 * REGBYTES(sp)
 80003cc:	4ce6                	lw	s9,88(sp)
    LOAD x26, 23 * REGBYTES(sp)
 80003ce:	4d76                	lw	s10,92(sp)
    LOAD x27, 24 * REGBYTES(sp)
 80003d0:	5d86                	lw	s11,96(sp)
    LOAD x28, 25 * REGBYTES(sp)
 80003d2:	5e16                	lw	t3,100(sp)
    LOAD x29, 26 * REGBYTES(sp)
 80003d4:	5ea6                	lw	t4,104(sp)
    LOAD x30, 27 * REGBYTES(sp)
 80003d6:	5f36                	lw	t5,108(sp)
    LOAD x31, 28 * REGBYTES(sp)
 80003d8:	5fc6                	lw	t6,112(sp)
#endif

    addi sp, sp, portCONTEXT_SIZE
 80003da:	07810113          	addi	sp,sp,120

    mret
 80003de:	30200073          	mret
 80003e2:	0001                	nop

080003e4 <eclic_msip_handler>:

.align 2
.global eclic_msip_handler
eclic_msip_handler:
    addi sp, sp, -portCONTEXT_SIZE
 80003e4:	f8810113          	addi	sp,sp,-120
    STORE x1,  1  * REGBYTES(sp)    /* RA */
 80003e8:	c206                	sw	ra,4(sp)
    STORE x5,  2  * REGBYTES(sp)
 80003ea:	c416                	sw	t0,8(sp)
    STORE x6,  3  * REGBYTES(sp)
 80003ec:	c61a                	sw	t1,12(sp)
    STORE x7,  4  * REGBYTES(sp)
 80003ee:	c81e                	sw	t2,16(sp)
    STORE x8,  5  * REGBYTES(sp)
 80003f0:	ca22                	sw	s0,20(sp)
    STORE x9,  6  * REGBYTES(sp)
 80003f2:	cc26                	sw	s1,24(sp)
    STORE x10, 7  * REGBYTES(sp)
 80003f4:	ce2a                	sw	a0,28(sp)
    STORE x11, 8  * REGBYTES(sp)
 80003f6:	d02e                	sw	a1,32(sp)
    STORE x12, 9  * REGBYTES(sp)
 80003f8:	d232                	sw	a2,36(sp)
    STORE x13, 10 * REGBYTES(sp)
 80003fa:	d436                	sw	a3,40(sp)
    STORE x14, 11 * REGBYTES(sp)
 80003fc:	d63a                	sw	a4,44(sp)
    STORE x15, 12 * REGBYTES(sp)
 80003fe:	d83e                	sw	a5,48(sp)
#ifndef __riscv_32e
    STORE x16, 13 * REGBYTES(sp)
 8000400:	da42                	sw	a6,52(sp)
    STORE x17, 14 * REGBYTES(sp)
 8000402:	dc46                	sw	a7,56(sp)
    STORE x18, 15 * REGBYTES(sp)
 8000404:	de4a                	sw	s2,60(sp)
    STORE x19, 16 * REGBYTES(sp)
 8000406:	c0ce                	sw	s3,64(sp)
    STORE x20, 17 * REGBYTES(sp)
 8000408:	c2d2                	sw	s4,68(sp)
    STORE x21, 18 * REGBYTES(sp)
 800040a:	c4d6                	sw	s5,72(sp)
    STORE x22, 19 * REGBYTES(sp)
 800040c:	c6da                	sw	s6,76(sp)
    STORE x23, 20 * REGBYTES(sp)
 800040e:	c8de                	sw	s7,80(sp)
    STORE x24, 21 * REGBYTES(sp)
 8000410:	cae2                	sw	s8,84(sp)
    STORE x25, 22 * REGBYTES(sp)
 8000412:	cce6                	sw	s9,88(sp)
    STORE x26, 23 * REGBYTES(sp)
 8000414:	ceea                	sw	s10,92(sp)
    STORE x27, 24 * REGBYTES(sp)
 8000416:	d0ee                	sw	s11,96(sp)
    STORE x28, 25 * REGBYTES(sp)
 8000418:	d2f2                	sw	t3,100(sp)
    STORE x29, 26 * REGBYTES(sp)
 800041a:	d4f6                	sw	t4,104(sp)
    STORE x30, 27 * REGBYTES(sp)
 800041c:	d6fa                	sw	t5,108(sp)
    STORE x31, 28 * REGBYTES(sp)
 800041e:	d8fe                	sw	t6,112(sp)
#endif
    /* Push mstatus to stack */
    csrr t0, CSR_MSTATUS
 8000420:	300022f3          	csrr	t0,mstatus
    STORE t0,  (portRegNum - 1)  * REGBYTES(sp)
 8000424:	da96                	sw	t0,116(sp)

    /* Push additional registers */

    /* Store sp to task stack */
    LOAD t0, pxCurrentTCB
 8000426:	00119297          	auipc	t0,0x119
 800042a:	b4e2a283          	lw	t0,-1202(t0) # 8118f74 <pxCurrentTCB>
    STORE sp, 0(t0)
 800042e:	0022a023          	sw	sp,0(t0)

    csrr t0, CSR_MEPC
 8000432:	341022f3          	csrr	t0,mepc
    STORE t0, 0(sp)
 8000436:	c016                	sw	t0,0(sp)
    jal xPortTaskSwitch
 8000438:	1bd000ef          	jal	ra,8000df4 <xPortTaskSwitch>

    /* Switch task context */
    LOAD t0, pxCurrentTCB           /* Load pxCurrentTCB. */
 800043c:	00119297          	auipc	t0,0x119
 8000440:	b382a283          	lw	t0,-1224(t0) # 8118f74 <pxCurrentTCB>
    LOAD sp, 0x0(t0)                /* Read sp from first TCB member */
 8000444:	0002a103          	lw	sp,0(t0)

    /* Pop PC from stack and set MEPC */
    LOAD t0,  0  * REGBYTES(sp)
 8000448:	4282                	lw	t0,0(sp)
    csrw CSR_MEPC, t0
 800044a:	34129073          	csrw	mepc,t0
    /* Pop additional registers */

    /* Pop mstatus from stack and set it */
    LOAD t0,  (portRegNum - 1)  * REGBYTES(sp)
 800044e:	52d6                	lw	t0,116(sp)
    csrw CSR_MSTATUS, t0
 8000450:	30029073          	csrw	mstatus,t0
    /* Interrupt still disable here */
    /* Restore Registers from Stack */
    LOAD x1,  1  * REGBYTES(sp)    /* RA */
 8000454:	4092                	lw	ra,4(sp)
    LOAD x5,  2  * REGBYTES(sp)
 8000456:	42a2                	lw	t0,8(sp)
    LOAD x6,  3  * REGBYTES(sp)
 8000458:	4332                	lw	t1,12(sp)
    LOAD x7,  4  * REGBYTES(sp)
 800045a:	43c2                	lw	t2,16(sp)
    LOAD x8,  5  * REGBYTES(sp)
 800045c:	4452                	lw	s0,20(sp)
    LOAD x9,  6  * REGBYTES(sp)
 800045e:	44e2                	lw	s1,24(sp)
    LOAD x10, 7  * REGBYTES(sp)
 8000460:	4572                	lw	a0,28(sp)
    LOAD x11, 8  * REGBYTES(sp)
 8000462:	5582                	lw	a1,32(sp)
    LOAD x12, 9  * REGBYTES(sp)
 8000464:	5612                	lw	a2,36(sp)
    LOAD x13, 10 * REGBYTES(sp)
 8000466:	56a2                	lw	a3,40(sp)
    LOAD x14, 11 * REGBYTES(sp)
 8000468:	5732                	lw	a4,44(sp)
    LOAD x15, 12 * REGBYTES(sp)
 800046a:	57c2                	lw	a5,48(sp)
#ifndef __riscv_32e
    LOAD x16, 13 * REGBYTES(sp)
 800046c:	5852                	lw	a6,52(sp)
    LOAD x17, 14 * REGBYTES(sp)
 800046e:	58e2                	lw	a7,56(sp)
    LOAD x18, 15 * REGBYTES(sp)
 8000470:	5972                	lw	s2,60(sp)
    LOAD x19, 16 * REGBYTES(sp)
 8000472:	4986                	lw	s3,64(sp)
    LOAD x20, 17 * REGBYTES(sp)
 8000474:	4a16                	lw	s4,68(sp)
    LOAD x21, 18 * REGBYTES(sp)
 8000476:	4aa6                	lw	s5,72(sp)
    LOAD x22, 19 * REGBYTES(sp)
 8000478:	4b36                	lw	s6,76(sp)
    LOAD x23, 20 * REGBYTES(sp)
 800047a:	4bc6                	lw	s7,80(sp)
    LOAD x24, 21 * REGBYTES(sp)
 800047c:	4c56                	lw	s8,84(sp)
    LOAD x25, 22 * REGBYTES(sp)
 800047e:	4ce6                	lw	s9,88(sp)
    LOAD x26, 23 * REGBYTES(sp)
 8000480:	4d76                	lw	s10,92(sp)
    LOAD x27, 24 * REGBYTES(sp)
 8000482:	5d86                	lw	s11,96(sp)
    LOAD x28, 25 * REGBYTES(sp)
 8000484:	5e16                	lw	t3,100(sp)
    LOAD x29, 26 * REGBYTES(sp)
 8000486:	5ea6                	lw	t4,104(sp)
    LOAD x30, 27 * REGBYTES(sp)
 8000488:	5f36                	lw	t5,108(sp)
    LOAD x31, 28 * REGBYTES(sp)
 800048a:	5fc6                	lw	t6,112(sp)
#endif

    addi sp, sp, portCONTEXT_SIZE
 800048c:	07810113          	addi	sp,sp,120
    mret
 8000490:	30200073          	mret

08000494 <vListInitialise>:
/*-----------------------------------------------------------
 * PUBLIC LIST API documented in list.h
 *----------------------------------------------------------*/

void vListInitialise( List_t * const pxList )
{
 8000494:	1101                	addi	sp,sp,-32
 8000496:	ce22                	sw	s0,28(sp)
 8000498:	1000                	addi	s0,sp,32
 800049a:	fea42623          	sw	a0,-20(s0)
	/* The list structure contains a list item which is used to mark the
	end of the list.  To initialise the list the list end is inserted
	as the only list entry. */
	pxList->pxIndex = ( ListItem_t * ) &( pxList->xListEnd );			/*lint !e826 !e740 !e9087 The mini list structure is used as the list end to save RAM.  This is checked and valid. */
 800049e:	fec42783          	lw	a5,-20(s0)
 80004a2:	00878713          	addi	a4,a5,8
 80004a6:	fec42783          	lw	a5,-20(s0)
 80004aa:	c3d8                	sw	a4,4(a5)

	/* The list end value is the highest possible value in the list to
	ensure it remains at the end of the list. */
	pxList->xListEnd.xItemValue = portMAX_DELAY;
 80004ac:	fec42683          	lw	a3,-20(s0)
 80004b0:	577d                	li	a4,-1
 80004b2:	57fd                	li	a5,-1
 80004b4:	c698                	sw	a4,8(a3)
 80004b6:	c6dc                	sw	a5,12(a3)

	/* The list end next and previous pointers point to itself so we know
	when the list is empty. */
	pxList->xListEnd.pxNext = ( ListItem_t * ) &( pxList->xListEnd );	/*lint !e826 !e740 !e9087 The mini list structure is used as the list end to save RAM.  This is checked and valid. */
 80004b8:	fec42783          	lw	a5,-20(s0)
 80004bc:	00878713          	addi	a4,a5,8
 80004c0:	fec42783          	lw	a5,-20(s0)
 80004c4:	cb98                	sw	a4,16(a5)
	pxList->xListEnd.pxPrevious = ( ListItem_t * ) &( pxList->xListEnd );/*lint !e826 !e740 !e9087 The mini list structure is used as the list end to save RAM.  This is checked and valid. */
 80004c6:	fec42783          	lw	a5,-20(s0)
 80004ca:	00878713          	addi	a4,a5,8
 80004ce:	fec42783          	lw	a5,-20(s0)
 80004d2:	cbd8                	sw	a4,20(a5)

	pxList->uxNumberOfItems = ( UBaseType_t ) 0U;
 80004d4:	fec42783          	lw	a5,-20(s0)
 80004d8:	0007a023          	sw	zero,0(a5)

	/* Write known values into the list if
	configUSE_LIST_DATA_INTEGRITY_CHECK_BYTES is set to 1. */
	listSET_LIST_INTEGRITY_CHECK_1_VALUE( pxList );
	listSET_LIST_INTEGRITY_CHECK_2_VALUE( pxList );
}
 80004dc:	0001                	nop
 80004de:	4472                	lw	s0,28(sp)
 80004e0:	6105                	addi	sp,sp,32
 80004e2:	8082                	ret

080004e4 <vListInitialiseItem>:
/*-----------------------------------------------------------*/

void vListInitialiseItem( ListItem_t * const pxItem )
{
 80004e4:	1101                	addi	sp,sp,-32
 80004e6:	ce22                	sw	s0,28(sp)
 80004e8:	1000                	addi	s0,sp,32
 80004ea:	fea42623          	sw	a0,-20(s0)
	/* Make sure the list item is not recorded as being on a list. */
	pxItem->pxContainer = NULL;
 80004ee:	fec42783          	lw	a5,-20(s0)
 80004f2:	0007aa23          	sw	zero,20(a5)

	/* Write known values into the list item if
	configUSE_LIST_DATA_INTEGRITY_CHECK_BYTES is set to 1. */
	listSET_FIRST_LIST_ITEM_INTEGRITY_CHECK_VALUE( pxItem );
	listSET_SECOND_LIST_ITEM_INTEGRITY_CHECK_VALUE( pxItem );
}
 80004f6:	0001                	nop
 80004f8:	4472                	lw	s0,28(sp)
 80004fa:	6105                	addi	sp,sp,32
 80004fc:	8082                	ret

080004fe <vListInsertEnd>:
/*-----------------------------------------------------------*/

void vListInsertEnd( List_t * const pxList, ListItem_t * const pxNewListItem )
{
 80004fe:	7179                	addi	sp,sp,-48
 8000500:	d622                	sw	s0,44(sp)
 8000502:	1800                	addi	s0,sp,48
 8000504:	fca42e23          	sw	a0,-36(s0)
 8000508:	fcb42c23          	sw	a1,-40(s0)
ListItem_t * const pxIndex = pxList->pxIndex;
 800050c:	fdc42783          	lw	a5,-36(s0)
 8000510:	43dc                	lw	a5,4(a5)
 8000512:	fef42623          	sw	a5,-20(s0)
	listTEST_LIST_ITEM_INTEGRITY( pxNewListItem );

	/* Insert a new list item into pxList, but rather than sort the list,
	makes the new list item the last item to be removed by a call to
	listGET_OWNER_OF_NEXT_ENTRY(). */
	pxNewListItem->pxNext = pxIndex;
 8000516:	fd842783          	lw	a5,-40(s0)
 800051a:	fec42703          	lw	a4,-20(s0)
 800051e:	c798                	sw	a4,8(a5)
	pxNewListItem->pxPrevious = pxIndex->pxPrevious;
 8000520:	fec42783          	lw	a5,-20(s0)
 8000524:	47d8                	lw	a4,12(a5)
 8000526:	fd842783          	lw	a5,-40(s0)
 800052a:	c7d8                	sw	a4,12(a5)

	/* Only used during decision coverage testing. */
	mtCOVERAGE_TEST_DELAY();

	pxIndex->pxPrevious->pxNext = pxNewListItem;
 800052c:	fec42783          	lw	a5,-20(s0)
 8000530:	47dc                	lw	a5,12(a5)
 8000532:	fd842703          	lw	a4,-40(s0)
 8000536:	c798                	sw	a4,8(a5)
	pxIndex->pxPrevious = pxNewListItem;
 8000538:	fec42783          	lw	a5,-20(s0)
 800053c:	fd842703          	lw	a4,-40(s0)
 8000540:	c7d8                	sw	a4,12(a5)

	/* Remember which list the item is in. */
	pxNewListItem->pxContainer = pxList;
 8000542:	fd842783          	lw	a5,-40(s0)
 8000546:	fdc42703          	lw	a4,-36(s0)
 800054a:	cbd8                	sw	a4,20(a5)

	( pxList->uxNumberOfItems )++;
 800054c:	fdc42783          	lw	a5,-36(s0)
 8000550:	439c                	lw	a5,0(a5)
 8000552:	00178713          	addi	a4,a5,1
 8000556:	fdc42783          	lw	a5,-36(s0)
 800055a:	c398                	sw	a4,0(a5)
}
 800055c:	0001                	nop
 800055e:	5432                	lw	s0,44(sp)
 8000560:	6145                	addi	sp,sp,48
 8000562:	8082                	ret

08000564 <vListInsert>:
/*-----------------------------------------------------------*/

void vListInsert( List_t * const pxList, ListItem_t * const pxNewListItem )
{
 8000564:	7179                	addi	sp,sp,-48
 8000566:	d622                	sw	s0,44(sp)
 8000568:	1800                	addi	s0,sp,48
 800056a:	fca42e23          	sw	a0,-36(s0)
 800056e:	fcb42c23          	sw	a1,-40(s0)
ListItem_t *pxIterator;
const TickType_t xValueOfInsertion = pxNewListItem->xItemValue;
 8000572:	fd842783          	lw	a5,-40(s0)
 8000576:	4398                	lw	a4,0(a5)
 8000578:	43dc                	lw	a5,4(a5)
 800057a:	fee42023          	sw	a4,-32(s0)
 800057e:	fef42223          	sw	a5,-28(s0)
	new list item should be placed after it.  This ensures that TCBs which are
	stored in ready lists (all of which have the same xItemValue value) get a
	share of the CPU.  However, if the xItemValue is the same as the back marker
	the iteration loop below will not end.  Therefore the value is checked
	first, and the algorithm slightly modified if necessary. */
	if( xValueOfInsertion == portMAX_DELAY )
 8000582:	fe042703          	lw	a4,-32(s0)
 8000586:	57fd                	li	a5,-1
 8000588:	00f71d63          	bne	a4,a5,80005a2 <vListInsert+0x3e>
 800058c:	fe442703          	lw	a4,-28(s0)
 8000590:	57fd                	li	a5,-1
 8000592:	00f71863          	bne	a4,a5,80005a2 <vListInsert+0x3e>
	{
		pxIterator = pxList->xListEnd.pxPrevious;
 8000596:	fdc42783          	lw	a5,-36(s0)
 800059a:	4bdc                	lw	a5,20(a5)
 800059c:	fef42623          	sw	a5,-20(s0)
 80005a0:	a081                	j	80005e0 <vListInsert+0x7c>
			4) Using a queue or semaphore before it has been initialised or
			   before the scheduler has been started (are interrupts firing
			   before vTaskStartScheduler() has been called?).
		**********************************************************************/

		for( pxIterator = ( ListItem_t * ) &( pxList->xListEnd ); pxIterator->pxNext->xItemValue <= xValueOfInsertion; pxIterator = pxIterator->pxNext ) /*lint !e826 !e740 !e9087 The mini list structure is used as the list end to save RAM.  This is checked and valid. *//*lint !e440 The iterator moves to a different value, not xValueOfInsertion. */
 80005a2:	fdc42783          	lw	a5,-36(s0)
 80005a6:	07a1                	addi	a5,a5,8
 80005a8:	fef42623          	sw	a5,-20(s0)
 80005ac:	a031                	j	80005b8 <vListInsert+0x54>
 80005ae:	fec42783          	lw	a5,-20(s0)
 80005b2:	479c                	lw	a5,8(a5)
 80005b4:	fef42623          	sw	a5,-20(s0)
 80005b8:	fec42783          	lw	a5,-20(s0)
 80005bc:	479c                	lw	a5,8(a5)
 80005be:	4398                	lw	a4,0(a5)
 80005c0:	43dc                	lw	a5,4(a5)
 80005c2:	fe442683          	lw	a3,-28(s0)
 80005c6:	863e                	mv	a2,a5
 80005c8:	00c6ec63          	bltu	a3,a2,80005e0 <vListInsert+0x7c>
 80005cc:	fe442683          	lw	a3,-28(s0)
 80005d0:	863e                	mv	a2,a5
 80005d2:	fcc69ee3          	bne	a3,a2,80005ae <vListInsert+0x4a>
 80005d6:	fe042683          	lw	a3,-32(s0)
 80005da:	87ba                	mv	a5,a4
 80005dc:	fcf6f9e3          	bgeu	a3,a5,80005ae <vListInsert+0x4a>
			/* There is nothing to do here, just iterating to the wanted
			insertion position. */
		}
	}

	pxNewListItem->pxNext = pxIterator->pxNext;
 80005e0:	fec42783          	lw	a5,-20(s0)
 80005e4:	4798                	lw	a4,8(a5)
 80005e6:	fd842783          	lw	a5,-40(s0)
 80005ea:	c798                	sw	a4,8(a5)
	pxNewListItem->pxNext->pxPrevious = pxNewListItem;
 80005ec:	fd842783          	lw	a5,-40(s0)
 80005f0:	479c                	lw	a5,8(a5)
 80005f2:	fd842703          	lw	a4,-40(s0)
 80005f6:	c7d8                	sw	a4,12(a5)
	pxNewListItem->pxPrevious = pxIterator;
 80005f8:	fd842783          	lw	a5,-40(s0)
 80005fc:	fec42703          	lw	a4,-20(s0)
 8000600:	c7d8                	sw	a4,12(a5)
	pxIterator->pxNext = pxNewListItem;
 8000602:	fec42783          	lw	a5,-20(s0)
 8000606:	fd842703          	lw	a4,-40(s0)
 800060a:	c798                	sw	a4,8(a5)

	/* Remember which list the item is in.  This allows fast removal of the
	item later. */
	pxNewListItem->pxContainer = pxList;
 800060c:	fd842783          	lw	a5,-40(s0)
 8000610:	fdc42703          	lw	a4,-36(s0)
 8000614:	cbd8                	sw	a4,20(a5)

	( pxList->uxNumberOfItems )++;
 8000616:	fdc42783          	lw	a5,-36(s0)
 800061a:	439c                	lw	a5,0(a5)
 800061c:	00178713          	addi	a4,a5,1
 8000620:	fdc42783          	lw	a5,-36(s0)
 8000624:	c398                	sw	a4,0(a5)
}
 8000626:	0001                	nop
 8000628:	5432                	lw	s0,44(sp)
 800062a:	6145                	addi	sp,sp,48
 800062c:	8082                	ret

0800062e <uxListRemove>:
/*-----------------------------------------------------------*/

UBaseType_t uxListRemove( ListItem_t * const pxItemToRemove )
{
 800062e:	7179                	addi	sp,sp,-48
 8000630:	d622                	sw	s0,44(sp)
 8000632:	1800                	addi	s0,sp,48
 8000634:	fca42e23          	sw	a0,-36(s0)
/* The list item knows which list it is in.  Obtain the list from the list
item. */
List_t * const pxList = pxItemToRemove->pxContainer;
 8000638:	fdc42783          	lw	a5,-36(s0)
 800063c:	4bdc                	lw	a5,20(a5)
 800063e:	fef42623          	sw	a5,-20(s0)

	pxItemToRemove->pxNext->pxPrevious = pxItemToRemove->pxPrevious;
 8000642:	fdc42783          	lw	a5,-36(s0)
 8000646:	479c                	lw	a5,8(a5)
 8000648:	fdc42703          	lw	a4,-36(s0)
 800064c:	4758                	lw	a4,12(a4)
 800064e:	c7d8                	sw	a4,12(a5)
	pxItemToRemove->pxPrevious->pxNext = pxItemToRemove->pxNext;
 8000650:	fdc42783          	lw	a5,-36(s0)
 8000654:	47dc                	lw	a5,12(a5)
 8000656:	fdc42703          	lw	a4,-36(s0)
 800065a:	4718                	lw	a4,8(a4)
 800065c:	c798                	sw	a4,8(a5)

	/* Only used during decision coverage testing. */
	mtCOVERAGE_TEST_DELAY();

	/* Make sure the index is left pointing to a valid item. */
	if( pxList->pxIndex == pxItemToRemove )
 800065e:	fec42783          	lw	a5,-20(s0)
 8000662:	43dc                	lw	a5,4(a5)
 8000664:	fdc42703          	lw	a4,-36(s0)
 8000668:	00f71863          	bne	a4,a5,8000678 <uxListRemove+0x4a>
	{
		pxList->pxIndex = pxItemToRemove->pxPrevious;
 800066c:	fdc42783          	lw	a5,-36(s0)
 8000670:	47d8                	lw	a4,12(a5)
 8000672:	fec42783          	lw	a5,-20(s0)
 8000676:	c3d8                	sw	a4,4(a5)
	else
	{
		mtCOVERAGE_TEST_MARKER();
	}

	pxItemToRemove->pxContainer = NULL;
 8000678:	fdc42783          	lw	a5,-36(s0)
 800067c:	0007aa23          	sw	zero,20(a5)
	( pxList->uxNumberOfItems )--;
 8000680:	fec42783          	lw	a5,-20(s0)
 8000684:	439c                	lw	a5,0(a5)
 8000686:	fff78713          	addi	a4,a5,-1
 800068a:	fec42783          	lw	a5,-20(s0)
 800068e:	c398                	sw	a4,0(a5)

	return pxList->uxNumberOfItems;
 8000690:	fec42783          	lw	a5,-20(s0)
 8000694:	439c                	lw	a5,0(a5)
}
 8000696:	853e                	mv	a0,a5
 8000698:	5432                	lw	s0,44(sp)
 800069a:	6145                	addi	sp,sp,48
 800069c:	8082                	ret

0800069e <SysTick_Config>:
 * - This function only available when __SYSTIMER_PRESENT == 1 and __ECLIC_PRESENT == 1 and __Vendor_SysTickConfig == 0
 * \sa
 * - \ref SysTimer_SetCompareValue; SysTimer_SetLoadValue
 */
__STATIC_INLINE uint32_t SysTick_Config(uint64_t ticks)
{
 800069e:	7151                	addi	sp,sp,-240
 80006a0:	d7a2                	sw	s0,236(sp)
 80006a2:	1980                	addi	s0,sp,240
 80006a4:	f0a42c23          	sw	a0,-232(s0)
 80006a8:	f0b42e23          	sw	a1,-228(s0)
    addr = (uint8_t *)(&(SysTimer->MTIMER));
 80006ac:	000305b7          	lui	a1,0x30
 80006b0:	f6b42023          	sw	a1,-160(s0)
    high0 = __LW(addr + 4);
 80006b4:	f6042583          	lw	a1,-160(s0)
 80006b8:	0591                	addi	a1,a1,4
 80006ba:	f4b42e23          	sw	a1,-164(s0)
 */
__STATIC_FORCEINLINE uint32_t __LW(volatile void *addr)
{
    uint32_t result;

    __ASM volatile ("lw %0, 0(%1)" : "=r" (result) : "r" (addr));
 80006be:	f5c42583          	lw	a1,-164(s0)
 80006c2:	418c                	lw	a1,0(a1)
 80006c4:	f4b42c23          	sw	a1,-168(s0)
    return result;
 80006c8:	f5842583          	lw	a1,-168(s0)
 80006cc:	f2b42a23          	sw	a1,-204(s0)
 80006d0:	f6042583          	lw	a1,-160(s0)
 80006d4:	f4b42a23          	sw	a1,-172(s0)
    __ASM volatile ("lw %0, 0(%1)" : "=r" (result) : "r" (addr));
 80006d8:	f5442583          	lw	a1,-172(s0)
 80006dc:	418c                	lw	a1,0(a1)
 80006de:	f4b42823          	sw	a1,-176(s0)
    return result;
 80006e2:	f5042583          	lw	a1,-176(s0)
    low = __LW(addr);
 80006e6:	f2b42823          	sw	a1,-208(s0)
    high = __LW(addr + 4);
 80006ea:	f6042583          	lw	a1,-160(s0)
 80006ee:	0591                	addi	a1,a1,4
 80006f0:	f4b42623          	sw	a1,-180(s0)
    __ASM volatile ("lw %0, 0(%1)" : "=r" (result) : "r" (addr));
 80006f4:	f4c42583          	lw	a1,-180(s0)
 80006f8:	418c                	lw	a1,0(a1)
 80006fa:	f4b42423          	sw	a1,-184(s0)
    return result;
 80006fe:	f4842583          	lw	a1,-184(s0)
 8000702:	f2b42623          	sw	a1,-212(s0)
    if (high0 != high) {
 8000706:	f3442503          	lw	a0,-204(s0)
 800070a:	f2c42583          	lw	a1,-212(s0)
 800070e:	00b50f63          	beq	a0,a1,800072c <SysTick_Config+0x8e>
 8000712:	f6042583          	lw	a1,-160(s0)
 8000716:	f4b42223          	sw	a1,-188(s0)
    __ASM volatile ("lw %0, 0(%1)" : "=r" (result) : "r" (addr));
 800071a:	f4442583          	lw	a1,-188(s0)
 800071e:	418c                	lw	a1,0(a1)
 8000720:	f4b42023          	sw	a1,-192(s0)
    return result;
 8000724:	f4042583          	lw	a1,-192(s0)
        low = __LW(addr);
 8000728:	f2b42823          	sw	a1,-208(s0)
    full = (((uint64_t)high) << 32) | low;
 800072c:	f2c42583          	lw	a1,-212(s0)
 8000730:	8e2e                	mv	t3,a1
 8000732:	4e81                	li	t4,0
 8000734:	000e1793          	slli	a5,t3,0x0
 8000738:	4701                	li	a4,0
 800073a:	f3042583          	lw	a1,-208(s0)
 800073e:	862e                	mv	a2,a1
 8000740:	4681                	li	a3,0
 8000742:	00c765b3          	or	a1,a4,a2
 8000746:	f2b42c23          	sw	a1,-200(s0)
 800074a:	8fd5                	or	a5,a5,a3
 800074c:	f2f42e23          	sw	a5,-196(s0)
    return full;
 8000750:	f3842703          	lw	a4,-200(s0)
 8000754:	f3c42783          	lw	a5,-196(s0)
    uint64_t loadticks = SysTimer_GetLoadValue();
 8000758:	fee42423          	sw	a4,-24(s0)
 800075c:	fef42623          	sw	a5,-20(s0)
    SysTimer_SetCompareValue(ticks + loadticks);
 8000760:	f1842703          	lw	a4,-232(s0)
 8000764:	f1c42783          	lw	a5,-228(s0)
 8000768:	fe842503          	lw	a0,-24(s0)
 800076c:	fec42583          	lw	a1,-20(s0)
 8000770:	00a70633          	add	a2,a4,a0
 8000774:	8e32                	mv	t3,a2
 8000776:	00ee3e33          	sltu	t3,t3,a4
 800077a:	00b786b3          	add	a3,a5,a1
 800077e:	00de07b3          	add	a5,t3,a3
 8000782:	86be                	mv	a3,a5
 8000784:	8732                	mv	a4,a2
 8000786:	87b6                	mv	a5,a3
 8000788:	fae42c23          	sw	a4,-72(s0)
 800078c:	faf42e23          	sw	a5,-68(s0)
    id = __RV_CSR_READ(CSR_MHARTID) & 0xFF;
 8000790:	f14027f3          	csrr	a5,mhartid
 8000794:	faf42a23          	sw	a5,-76(s0)
 8000798:	fb442783          	lw	a5,-76(s0)
 800079c:	0ff7f793          	zext.b	a5,a5
 80007a0:	faf42823          	sw	a5,-80(s0)
    return id;
 80007a4:	fb042783          	lw	a5,-80(s0)
    unsigned long hartid = __get_hart_id();
 80007a8:	faf42623          	sw	a5,-84(s0)
 80007ac:	fb842703          	lw	a4,-72(s0)
 80007b0:	fbc42783          	lw	a5,-68(s0)
 80007b4:	fae42023          	sw	a4,-96(s0)
 80007b8:	faf42223          	sw	a5,-92(s0)
 80007bc:	fac42783          	lw	a5,-84(s0)
 80007c0:	f8f42e23          	sw	a5,-100(s0)
    if (hartid == 0) {
 80007c4:	f9c42783          	lw	a5,-100(s0)
 80007c8:	e7a5                	bnez	a5,8000830 <SysTick_Config+0x192>
        addr = (uint8_t *)(&(SysTimer->MTIMERCMP));
 80007ca:	000307b7          	lui	a5,0x30
 80007ce:	07a1                	addi	a5,a5,8
 80007d0:	f8f42c23          	sw	a5,-104(s0)
 80007d4:	f9842783          	lw	a5,-104(s0)
 80007d8:	f8f42a23          	sw	a5,-108(s0)
 80007dc:	57fd                	li	a5,-1
 80007de:	f8f42823          	sw	a5,-112(s0)
 * \param [in]    addr  Address pointer to data
 * \param [in]    val   Value to set
 */
__STATIC_FORCEINLINE void __SW(volatile void *addr, uint32_t val)
{
    __ASM volatile ("sw %0, 0(%1)" : : "r" (val), "r" (addr));
 80007e2:	f9042783          	lw	a5,-112(s0)
 80007e6:	f9442703          	lw	a4,-108(s0)
 80007ea:	c31c                	sw	a5,0(a4)
}
 80007ec:	0001                	nop
        __SW(addr + 4, (uint32_t)(value >> 32));
 80007ee:	f9842783          	lw	a5,-104(s0)
 80007f2:	0791                	addi	a5,a5,4
 80007f4:	fa442703          	lw	a4,-92(s0)
 80007f8:	00075313          	srli	t1,a4,0x0
 80007fc:	4381                	li	t2,0
 80007fe:	871a                	mv	a4,t1
 8000800:	f8f42623          	sw	a5,-116(s0)
 8000804:	f8e42423          	sw	a4,-120(s0)
    __ASM volatile ("sw %0, 0(%1)" : : "r" (val), "r" (addr));
 8000808:	f8842783          	lw	a5,-120(s0)
 800080c:	f8c42703          	lw	a4,-116(s0)
 8000810:	c31c                	sw	a5,0(a4)
}
 8000812:	0001                	nop
        __SW(addr, (uint32_t)(value));
 8000814:	fa042783          	lw	a5,-96(s0)
 8000818:	f9842703          	lw	a4,-104(s0)
 800081c:	f8e42223          	sw	a4,-124(s0)
 8000820:	f8f42023          	sw	a5,-128(s0)
    __ASM volatile ("sw %0, 0(%1)" : : "r" (val), "r" (addr));
 8000824:	f8042783          	lw	a5,-128(s0)
 8000828:	f8442703          	lw	a4,-124(s0)
 800082c:	c31c                	sw	a5,0(a4)
}
 800082e:	a885                	j	800089e <SysTick_Config+0x200>
        uint8_t *addr = (uint8_t *)(SysTimer_CLINT_MTIMECMP_BASE(hartid));
 8000830:	f9c42783          	lw	a5,-100(s0)
 8000834:	00379713          	slli	a4,a5,0x3
 8000838:	000357b7          	lui	a5,0x35
 800083c:	97ba                	add	a5,a5,a4
 800083e:	f6f42e23          	sw	a5,-132(s0)
 8000842:	f7c42783          	lw	a5,-132(s0)
 8000846:	f6f42c23          	sw	a5,-136(s0)
 800084a:	57fd                	li	a5,-1
 800084c:	f6f42a23          	sw	a5,-140(s0)
    __ASM volatile ("sw %0, 0(%1)" : : "r" (val), "r" (addr));
 8000850:	f7442783          	lw	a5,-140(s0)
 8000854:	f7842703          	lw	a4,-136(s0)
 8000858:	c31c                	sw	a5,0(a4)
}
 800085a:	0001                	nop
        __SW(addr + 4, (uint32_t)(value >> 32));
 800085c:	f7c42783          	lw	a5,-132(s0)
 8000860:	0791                	addi	a5,a5,4
 8000862:	fa442703          	lw	a4,-92(s0)
 8000866:	00075813          	srli	a6,a4,0x0
 800086a:	4881                	li	a7,0
 800086c:	8742                	mv	a4,a6
 800086e:	f6f42823          	sw	a5,-144(s0)
 8000872:	f6e42623          	sw	a4,-148(s0)
    __ASM volatile ("sw %0, 0(%1)" : : "r" (val), "r" (addr));
 8000876:	f6c42783          	lw	a5,-148(s0)
 800087a:	f7042703          	lw	a4,-144(s0)
 800087e:	c31c                	sw	a5,0(a4)
}
 8000880:	0001                	nop
        __SW(addr, (uint32_t)value);
 8000882:	fa042783          	lw	a5,-96(s0)
 8000886:	f7c42703          	lw	a4,-132(s0)
 800088a:	f6e42423          	sw	a4,-152(s0)
 800088e:	f6f42223          	sw	a5,-156(s0)
    __ASM volatile ("sw %0, 0(%1)" : : "r" (val), "r" (addr));
 8000892:	f6442783          	lw	a5,-156(s0)
 8000896:	f6842703          	lw	a4,-152(s0)
 800089a:	c31c                	sw	a5,0(a4)
}
 800089c:	0001                	nop
}
 800089e:	0001                	nop
}
 80008a0:	0001                	nop
 80008a2:	479d                	li	a5,7
 80008a4:	fcf42223          	sw	a5,-60(s0)
 80008a8:	fc042023          	sw	zero,-64(s0)
 * \sa
 * - \ref ECLIC_GetShvIRQ
 */
__STATIC_FORCEINLINE void __ECLIC_SetShvIRQ(IRQn_Type IRQn, uint32_t shv)
{
    ECLIC->CTRL[IRQn].INTATTR &= ~CLIC_INTATTR_SHV_Msk;
 80008ac:	00020737          	lui	a4,0x20
 80008b0:	fc442783          	lw	a5,-60(s0)
 80008b4:	40078793          	addi	a5,a5,1024 # 35400 <__HEAP_SIZE+0x34c00>
 80008b8:	078a                	slli	a5,a5,0x2
 80008ba:	97ba                	add	a5,a5,a4
 80008bc:	0027c783          	lbu	a5,2(a5)
 80008c0:	0ff7f793          	zext.b	a5,a5
 80008c4:	000206b7          	lui	a3,0x20
 80008c8:	9bf9                	andi	a5,a5,-2
 80008ca:	0ff7f713          	zext.b	a4,a5
 80008ce:	fc442783          	lw	a5,-60(s0)
 80008d2:	40078793          	addi	a5,a5,1024
 80008d6:	078a                	slli	a5,a5,0x2
 80008d8:	97b6                	add	a5,a5,a3
 80008da:	00e78123          	sb	a4,2(a5)
    ECLIC->CTRL[IRQn].INTATTR |= (uint8_t)(shv << CLIC_INTATTR_SHV_Pos);
 80008de:	00020737          	lui	a4,0x20
 80008e2:	fc442783          	lw	a5,-60(s0)
 80008e6:	40078793          	addi	a5,a5,1024
 80008ea:	078a                	slli	a5,a5,0x2
 80008ec:	97ba                	add	a5,a5,a4
 80008ee:	0027c783          	lbu	a5,2(a5)
 80008f2:	0ff7f713          	zext.b	a4,a5
 80008f6:	fc042783          	lw	a5,-64(s0)
 80008fa:	0ff7f793          	zext.b	a5,a5
 80008fe:	000206b7          	lui	a3,0x20
 8000902:	8fd9                	or	a5,a5,a4
 8000904:	0ff7f713          	zext.b	a4,a5
 8000908:	fc442783          	lw	a5,-60(s0)
 800090c:	40078793          	addi	a5,a5,1024
 8000910:	078a                	slli	a5,a5,0x2
 8000912:	97b6                	add	a5,a5,a3
 8000914:	00e78123          	sb	a4,2(a5)
}
 8000918:	0001                	nop
 800091a:	479d                	li	a5,7
 800091c:	fef42023          	sw	a5,-32(s0)
 8000920:	fc040fa3          	sb	zero,-33(s0)
    return ((uint32_t)((ECLIC->CFG & CLIC_CLICCFG_NLBIT_Msk) >> CLIC_CLICCFG_NLBIT_Pos));
 8000924:	000207b7          	lui	a5,0x20
 8000928:	0007c783          	lbu	a5,0(a5) # 20000 <__HEAP_SIZE+0x1f800>
 800092c:	0ff7f793          	zext.b	a5,a5
 8000930:	8385                	srli	a5,a5,0x1
 8000932:	8bbd                	andi	a5,a5,15
 * \sa
 * - \ref ECLIC_GetLevelIRQ
 */
__STATIC_FORCEINLINE void __ECLIC_SetLevelIRQ(IRQn_Type IRQn, uint8_t lvl_abs)
{
    uint8_t nlbits = __ECLIC_GetCfgNlbits();
 8000934:	fcf40f23          	sb	a5,-34(s0)
    return ((uint32_t)((ECLIC->INFO & CLIC_CLICINFO_CTLBIT_Msk) >> CLIC_CLICINFO_CTLBIT_Pos));
 8000938:	000207b7          	lui	a5,0x20
 800093c:	43dc                	lw	a5,4(a5)
 800093e:	83d5                	srli	a5,a5,0x15
 8000940:	8bbd                	andi	a5,a5,15
    uint8_t intctlbits = (uint8_t)__ECLIC_INTCTLBITS;
 8000942:	fcf40ea3          	sb	a5,-35(s0)

    if (nlbits == 0) {
 8000946:	fde44783          	lbu	a5,-34(s0)
 800094a:	c7f1                	beqz	a5,8000a16 <SysTick_Config+0x378>
        return;
    }

    if (nlbits > intctlbits) {
 800094c:	fde44703          	lbu	a4,-34(s0)
 8000950:	fdd44783          	lbu	a5,-35(s0)
 8000954:	00e7f663          	bgeu	a5,a4,8000960 <SysTick_Config+0x2c2>
        nlbits = intctlbits;
 8000958:	fdd44783          	lbu	a5,-35(s0)
 800095c:	fcf40f23          	sb	a5,-34(s0)
    }
    uint8_t maxlvl = ((1 << nlbits) - 1);
 8000960:	fde44783          	lbu	a5,-34(s0)
 8000964:	4705                	li	a4,1
 8000966:	00f717b3          	sll	a5,a4,a5
 800096a:	0ff7f793          	zext.b	a5,a5
 800096e:	17fd                	addi	a5,a5,-1
 8000970:	fcf40e23          	sb	a5,-36(s0)
    if (lvl_abs > maxlvl) {
 8000974:	fdf44703          	lbu	a4,-33(s0)
 8000978:	fdc44783          	lbu	a5,-36(s0)
 800097c:	00e7f663          	bgeu	a5,a4,8000988 <SysTick_Config+0x2ea>
        lvl_abs = maxlvl;
 8000980:	fdc44783          	lbu	a5,-36(s0)
 8000984:	fcf40fa3          	sb	a5,-33(s0)
    }
    uint8_t lvl = lvl_abs << (ECLIC_MAX_NLBITS - nlbits);
 8000988:	fdf44703          	lbu	a4,-33(s0)
 800098c:	fde44783          	lbu	a5,-34(s0)
 8000990:	46a1                	li	a3,8
 8000992:	40f687b3          	sub	a5,a3,a5
 8000996:	00f717b3          	sll	a5,a4,a5
 800099a:	fcf40da3          	sb	a5,-37(s0)
 800099e:	fe042783          	lw	a5,-32(s0)
 80009a2:	fcf42a23          	sw	a5,-44(s0)
    return (ECLIC->CTRL[IRQn].INTCTRL);
 80009a6:	00020737          	lui	a4,0x20
 80009aa:	fd442783          	lw	a5,-44(s0)
 80009ae:	40078793          	addi	a5,a5,1024 # 20400 <__HEAP_SIZE+0x1fc00>
 80009b2:	078a                	slli	a5,a5,0x2
 80009b4:	97ba                	add	a5,a5,a4
 80009b6:	0037c783          	lbu	a5,3(a5)
 80009ba:	0ff7f793          	zext.b	a5,a5
    uint8_t cur_ctrl = __ECLIC_GetCtrlIRQ(IRQn);
 80009be:	fcf409a3          	sb	a5,-45(s0)
    cur_ctrl = cur_ctrl << nlbits;
 80009c2:	fd344703          	lbu	a4,-45(s0)
 80009c6:	fde44783          	lbu	a5,-34(s0)
 80009ca:	00f717b3          	sll	a5,a4,a5
 80009ce:	fcf409a3          	sb	a5,-45(s0)
    cur_ctrl = cur_ctrl >> nlbits;
 80009d2:	fd344703          	lbu	a4,-45(s0)
 80009d6:	fde44783          	lbu	a5,-34(s0)
 80009da:	40f757b3          	sra	a5,a4,a5
 80009de:	fcf409a3          	sb	a5,-45(s0)
    __ECLIC_SetCtrlIRQ(IRQn, (cur_ctrl | lvl));
 80009e2:	fdb44703          	lbu	a4,-37(s0)
 80009e6:	fd344783          	lbu	a5,-45(s0)
 80009ea:	8fd9                	or	a5,a5,a4
 80009ec:	0ff7f793          	zext.b	a5,a5
 80009f0:	fe042703          	lw	a4,-32(s0)
 80009f4:	fce42623          	sw	a4,-52(s0)
 80009f8:	fcf405a3          	sb	a5,-53(s0)
    ECLIC->CTRL[IRQn].INTCTRL = intctrl;
 80009fc:	00020737          	lui	a4,0x20
 8000a00:	fcc42783          	lw	a5,-52(s0)
 8000a04:	40078793          	addi	a5,a5,1024
 8000a08:	078a                	slli	a5,a5,0x2
 8000a0a:	97ba                	add	a5,a5,a4
 8000a0c:	fcb44703          	lbu	a4,-53(s0)
 8000a10:	00e781a3          	sb	a4,3(a5)
}
 8000a14:	a011                	j	8000a18 <SysTick_Config+0x37a>
        return;
 8000a16:	0001                	nop
 8000a18:	479d                	li	a5,7
 8000a1a:	fef42223          	sw	a5,-28(s0)
    ECLIC->CTRL[IRQn].INTIE |= CLIC_INTIE_IE_Msk;
 8000a1e:	00020737          	lui	a4,0x20
 8000a22:	fe442783          	lw	a5,-28(s0)
 8000a26:	40078793          	addi	a5,a5,1024
 8000a2a:	078a                	slli	a5,a5,0x2
 8000a2c:	97ba                	add	a5,a5,a4
 8000a2e:	0017c783          	lbu	a5,1(a5)
 8000a32:	0ff7f793          	zext.b	a5,a5
 8000a36:	000206b7          	lui	a3,0x20
 8000a3a:	0017e793          	ori	a5,a5,1
 8000a3e:	0ff7f713          	zext.b	a4,a5
 8000a42:	fe442783          	lw	a5,-28(s0)
 8000a46:	40078793          	addi	a5,a5,1024
 8000a4a:	078a                	slli	a5,a5,0x2
 8000a4c:	97b6                	add	a5,a5,a3
 8000a4e:	00e780a3          	sb	a4,1(a5)
}
 8000a52:	0001                	nop
    ECLIC_SetShvIRQ(SysTimer_IRQn, ECLIC_NON_VECTOR_INTERRUPT);
    ECLIC_SetLevelIRQ(SysTimer_IRQn, 0);
    ECLIC_EnableIRQ(SysTimer_IRQn);
    return (0UL);
 8000a54:	4781                	li	a5,0
}
 8000a56:	853e                	mv	a0,a5
 8000a58:	543e                	lw	s0,236(sp)
 8000a5a:	616d                	addi	sp,sp,240
 8000a5c:	8082                	ret

08000a5e <pxPortInitialiseStack>:
 * x5
 * portTASK_RETURN_ADDRESS
 * pxCode
 */
StackType_t* pxPortInitialiseStack(StackType_t* pxTopOfStack, TaskFunction_t pxCode, void* pvParameters)
{
 8000a5e:	1101                	addi	sp,sp,-32
 8000a60:	ce22                	sw	s0,28(sp)
 8000a62:	1000                	addi	s0,sp,32
 8000a64:	fea42623          	sw	a0,-20(s0)
 8000a68:	feb42423          	sw	a1,-24(s0)
 8000a6c:	fec42223          	sw	a2,-28(s0)
    /* Simulate the stack frame as it would be created by a context switch
    interrupt. */

    /* Offset added to account for the way the MCU uses the stack on entry/exit
    of interrupts, and to ensure alignment. */
    pxTopOfStack--;
 8000a70:	fec42783          	lw	a5,-20(s0)
 8000a74:	17f1                	addi	a5,a5,-4
 8000a76:	fef42623          	sw	a5,-20(s0)
    *pxTopOfStack = portINITIAL_MSTATUS;    /* MSTATUS */
 8000a7a:	fec42783          	lw	a5,-20(s0)
 8000a7e:	6711                	lui	a4,0x4
 8000a80:	88070713          	addi	a4,a4,-1920 # 3880 <__HEAP_SIZE+0x3080>
 8000a84:	c398                	sw	a4,0(a5)

    /* Save code space by skipping register initialisation. */
#ifndef __riscv_32e
    pxTopOfStack -= 22;    /* X11 - X31. */
 8000a86:	fec42783          	lw	a5,-20(s0)
 8000a8a:	fa878793          	addi	a5,a5,-88
 8000a8e:	fef42623          	sw	a5,-20(s0)
#else
    pxTopOfStack -= 6;    /* X11 - X15. */
#endif
    *pxTopOfStack = (StackType_t) pvParameters;      /* X10/A0 */
 8000a92:	fe442703          	lw	a4,-28(s0)
 8000a96:	fec42783          	lw	a5,-20(s0)
 8000a9a:	c398                	sw	a4,0(a5)
    pxTopOfStack -= 6; /* X5 - X9 */
 8000a9c:	fec42783          	lw	a5,-20(s0)
 8000aa0:	17a1                	addi	a5,a5,-24
 8000aa2:	fef42623          	sw	a5,-20(s0)
    *pxTopOfStack = (StackType_t) portTASK_RETURN_ADDRESS;      /* RA, X1 */
 8000aa6:	080017b7          	lui	a5,0x8001
 8000aaa:	ad478713          	addi	a4,a5,-1324 # 8000ad4 <prvTaskExitError>
 8000aae:	fec42783          	lw	a5,-20(s0)
 8000ab2:	c398                	sw	a4,0(a5)

    pxTopOfStack --;
 8000ab4:	fec42783          	lw	a5,-20(s0)
 8000ab8:	17f1                	addi	a5,a5,-4
 8000aba:	fef42623          	sw	a5,-20(s0)
    *pxTopOfStack = ((StackType_t) pxCode) ;        /* PC */
 8000abe:	fe842703          	lw	a4,-24(s0)
 8000ac2:	fec42783          	lw	a5,-20(s0)
 8000ac6:	c398                	sw	a4,0(a5)

    return pxTopOfStack;
 8000ac8:	fec42783          	lw	a5,-20(s0)
}
 8000acc:	853e                	mv	a0,a5
 8000ace:	4472                	lw	s0,28(sp)
 8000ad0:	6105                	addi	sp,sp,32
 8000ad2:	8082                	ret

08000ad4 <prvTaskExitError>:
/*-----------------------------------------------------------*/

static void prvTaskExitError(void)
{
 8000ad4:	1101                	addi	sp,sp,-32
 8000ad6:	ce22                	sw	s0,28(sp)
 8000ad8:	1000                	addi	s0,sp,32
    volatile uint32_t ulDummy = 0;
 8000ada:	fe042223          	sw	zero,-28(s0)
    its caller as there is nothing to return to.  If a task wants to exit it
    should instead call vTaskDelete( NULL ).

    Artificially force an assert() to be triggered if configASSERT() is
    defined, then stop here so application writers can catch the error. */
    configASSERT(uxCriticalNesting == ~0UL);
 8000ade:	081177b7          	lui	a5,0x8117
 8000ae2:	7f07a703          	lw	a4,2032(a5) # 81177f0 <uxCriticalNesting>
 8000ae6:	57fd                	li	a5,-1
 8000ae8:	02f70363          	beq	a4,a5,8000b0e <prvTaskExitError+0x3a>
extern uint8_t uxMaxSysCallMTH;

/*-----------------------------------------------------------*/
portFORCE_INLINE static void vPortRaiseBASEPRI(void)
{
    ECLIC_SetMth(uxMaxSysCallMTH);
 8000aec:	081177b7          	lui	a5,0x8117
 8000af0:	7f47c783          	lbu	a5,2036(a5) # 81177f4 <uxMaxSysCallMTH>
 8000af4:	fef407a3          	sb	a5,-17(s0)
    ECLIC->MTH = mth;
 8000af8:	000207b7          	lui	a5,0x20
 8000afc:	fef44703          	lbu	a4,-17(s0)
 8000b00:	00e785a3          	sb	a4,11(a5) # 2000b <__HEAP_SIZE+0x1f80b>
}
 8000b04:	0001                	nop
    __RWMB();
 8000b06:	0ff0000f          	fence
}
 8000b0a:	0001                	nop
 8000b0c:	a001                	j	8000b0c <prvTaskExitError+0x38>
    ECLIC_SetMth(uxMaxSysCallMTH);
 8000b0e:	081177b7          	lui	a5,0x8117
 8000b12:	7f47c783          	lbu	a5,2036(a5) # 81177f4 <uxMaxSysCallMTH>
 8000b16:	fef40723          	sb	a5,-18(s0)
    ECLIC->MTH = mth;
 8000b1a:	000207b7          	lui	a5,0x20
 8000b1e:	fee44703          	lbu	a4,-18(s0)
 8000b22:	00e785a3          	sb	a4,11(a5) # 2000b <__HEAP_SIZE+0x1f80b>
}
 8000b26:	0001                	nop
    __RWMB();
 8000b28:	0ff0000f          	fence
}
 8000b2c:	0001                	nop
    portDISABLE_INTERRUPTS();
    while (ulDummy == 0) {
 8000b2e:	a819                	j	8000b44 <prvTaskExitError+0x70>
    __RV_CSR_CLEAR(CSR_WFE, WFE_WFE);
 8000b30:	4785                	li	a5,1
 8000b32:	fef42423          	sw	a5,-24(s0)
 8000b36:	fe842783          	lw	a5,-24(s0)
 8000b3a:	8107b073          	csrc	wfe,a5
    __ASM volatile("wfi");
 8000b3e:	10500073          	wfi
}
 8000b42:	0001                	nop
 8000b44:	fe442783          	lw	a5,-28(s0)
 8000b48:	d7e5                	beqz	a5,8000b30 <prvTaskExitError+0x5c>
        therefore not output an 'unreachable code' warning for code that appears
        after it. */
        /* Sleep and wait for interrupt */
        __WFI();
    }
}
 8000b4a:	0001                	nop
 8000b4c:	0001                	nop
 8000b4e:	4472                	lw	s0,28(sp)
 8000b50:	6105                	addi	sp,sp,32
 8000b52:	8082                	ret

08000b54 <prvCheckMaxSysCallPrio>:
/*-----------------------------------------------------------*/

static uint8_t prvCheckMaxSysCallPrio(uint8_t max_syscall_prio)
{
 8000b54:	7179                	addi	sp,sp,-48
 8000b56:	d622                	sw	s0,44(sp)
 8000b58:	1800                	addi	s0,sp,48
 8000b5a:	87aa                	mv	a5,a0
 8000b5c:	fcf40fa3          	sb	a5,-33(s0)
    return ((uint32_t)((ECLIC->CFG & CLIC_CLICCFG_NLBIT_Msk) >> CLIC_CLICCFG_NLBIT_Pos));
 8000b60:	000207b7          	lui	a5,0x20
 8000b64:	0007c783          	lbu	a5,0(a5) # 20000 <__HEAP_SIZE+0x1f800>
 8000b68:	0ff7f793          	zext.b	a5,a5
 8000b6c:	8385                	srli	a5,a5,0x1
 8000b6e:	8bbd                	andi	a5,a5,15
    uint8_t nlbits = __ECLIC_GetCfgNlbits();
 8000b70:	fef40723          	sb	a5,-18(s0)
    return ((uint32_t)((ECLIC->INFO & CLIC_CLICINFO_CTLBIT_Msk) >> CLIC_CLICINFO_CTLBIT_Pos));
 8000b74:	000207b7          	lui	a5,0x20
 8000b78:	43dc                	lw	a5,4(a5)
 8000b7a:	83d5                	srli	a5,a5,0x15
 8000b7c:	8bbd                	andi	a5,a5,15
    uint8_t intctlbits = __ECLIC_INTCTLBITS;
 8000b7e:	fef406a3          	sb	a5,-19(s0)
    uint8_t lvlbits, temp;

    if (nlbits <= intctlbits) {
 8000b82:	fee44703          	lbu	a4,-18(s0)
 8000b86:	fed44783          	lbu	a5,-19(s0)
 8000b8a:	00e7e763          	bltu	a5,a4,8000b98 <prvCheckMaxSysCallPrio+0x44>
        lvlbits = nlbits;
 8000b8e:	fee44783          	lbu	a5,-18(s0)
 8000b92:	fef407a3          	sb	a5,-17(s0)
 8000b96:	a029                	j	8000ba0 <prvCheckMaxSysCallPrio+0x4c>
    } else {
        lvlbits = intctlbits;
 8000b98:	fed44783          	lbu	a5,-19(s0)
 8000b9c:	fef407a3          	sb	a5,-17(s0)
    }

    temp = ((1 << lvlbits) - 1);
 8000ba0:	fef44783          	lbu	a5,-17(s0)
 8000ba4:	4705                	li	a4,1
 8000ba6:	00f717b3          	sll	a5,a4,a5
 8000baa:	0ff7f793          	zext.b	a5,a5
 8000bae:	17fd                	addi	a5,a5,-1
 8000bb0:	fef40623          	sb	a5,-20(s0)
    if (max_syscall_prio > temp) {
 8000bb4:	fdf44703          	lbu	a4,-33(s0)
 8000bb8:	fec44783          	lbu	a5,-20(s0)
 8000bbc:	00e7f663          	bgeu	a5,a4,8000bc8 <prvCheckMaxSysCallPrio+0x74>
        max_syscall_prio = temp;
 8000bc0:	fec44783          	lbu	a5,-20(s0)
 8000bc4:	fcf40fa3          	sb	a5,-33(s0)
    }
    return max_syscall_prio;
 8000bc8:	fdf44783          	lbu	a5,-33(s0)
}
 8000bcc:	853e                	mv	a0,a5
 8000bce:	5432                	lw	s0,44(sp)
 8000bd0:	6145                	addi	sp,sp,48
 8000bd2:	8082                	ret

08000bd4 <prvCalcMaxSysCallMTH>:

static uint8_t prvCalcMaxSysCallMTH(uint8_t max_syscall_prio)
{
 8000bd4:	7179                	addi	sp,sp,-48
 8000bd6:	d622                	sw	s0,44(sp)
 8000bd8:	1800                	addi	s0,sp,48
 8000bda:	87aa                	mv	a5,a0
 8000bdc:	fcf40fa3          	sb	a5,-33(s0)
    return ((uint32_t)((ECLIC->CFG & CLIC_CLICCFG_NLBIT_Msk) >> CLIC_CLICCFG_NLBIT_Pos));
 8000be0:	000207b7          	lui	a5,0x20
 8000be4:	0007c783          	lbu	a5,0(a5) # 20000 <__HEAP_SIZE+0x1f800>
 8000be8:	0ff7f793          	zext.b	a5,a5
 8000bec:	8385                	srli	a5,a5,0x1
 8000bee:	8bbd                	andi	a5,a5,15
    uint8_t nlbits = __ECLIC_GetCfgNlbits();
 8000bf0:	fef40723          	sb	a5,-18(s0)
    return ((uint32_t)((ECLIC->INFO & CLIC_CLICINFO_CTLBIT_Msk) >> CLIC_CLICINFO_CTLBIT_Pos));
 8000bf4:	000207b7          	lui	a5,0x20
 8000bf8:	43dc                	lw	a5,4(a5)
 8000bfa:	83d5                	srli	a5,a5,0x15
 8000bfc:	8bbd                	andi	a5,a5,15
    uint8_t intctlbits = __ECLIC_INTCTLBITS;
 8000bfe:	fef406a3          	sb	a5,-19(s0)
    uint8_t lvlbits, lfabits;
    uint8_t maxsyscallmth = 0;
 8000c02:	fe040623          	sb	zero,-20(s0)
    uint8_t temp;

    if (nlbits <= intctlbits) {
 8000c06:	fee44703          	lbu	a4,-18(s0)
 8000c0a:	fed44783          	lbu	a5,-19(s0)
 8000c0e:	00e7e763          	bltu	a5,a4,8000c1c <prvCalcMaxSysCallMTH+0x48>
        lvlbits = nlbits;
 8000c12:	fee44783          	lbu	a5,-18(s0)
 8000c16:	fef407a3          	sb	a5,-17(s0)
 8000c1a:	a029                	j	8000c24 <prvCalcMaxSysCallMTH+0x50>
    } else {
        lvlbits = intctlbits;
 8000c1c:	fed44783          	lbu	a5,-19(s0)
 8000c20:	fef407a3          	sb	a5,-17(s0)
    }

    lfabits = 8 - lvlbits;
 8000c24:	fef44783          	lbu	a5,-17(s0)
 8000c28:	4721                	li	a4,8
 8000c2a:	40f707b3          	sub	a5,a4,a5
 8000c2e:	fef405a3          	sb	a5,-21(s0)

    temp = ((1 << lvlbits) - 1);
 8000c32:	fef44783          	lbu	a5,-17(s0)
 8000c36:	4705                	li	a4,1
 8000c38:	00f717b3          	sll	a5,a4,a5
 8000c3c:	0ff7f793          	zext.b	a5,a5
 8000c40:	17fd                	addi	a5,a5,-1
 8000c42:	fef40523          	sb	a5,-22(s0)
    if (max_syscall_prio > temp) {
 8000c46:	fdf44703          	lbu	a4,-33(s0)
 8000c4a:	fea44783          	lbu	a5,-22(s0)
 8000c4e:	00e7f663          	bgeu	a5,a4,8000c5a <prvCalcMaxSysCallMTH+0x86>
        max_syscall_prio = temp;
 8000c52:	fea44783          	lbu	a5,-22(s0)
 8000c56:	fcf40fa3          	sb	a5,-33(s0)
    }

    maxsyscallmth = (max_syscall_prio << lfabits) | ((1 << lfabits) - 1);
 8000c5a:	fdf44703          	lbu	a4,-33(s0)
 8000c5e:	feb44783          	lbu	a5,-21(s0)
 8000c62:	00f717b3          	sll	a5,a4,a5
 8000c66:	01879713          	slli	a4,a5,0x18
 8000c6a:	8761                	srai	a4,a4,0x18
 8000c6c:	feb44783          	lbu	a5,-21(s0)
 8000c70:	4685                	li	a3,1
 8000c72:	00f697b3          	sll	a5,a3,a5
 8000c76:	0ff7f793          	zext.b	a5,a5
 8000c7a:	17fd                	addi	a5,a5,-1
 8000c7c:	0ff7f793          	zext.b	a5,a5
 8000c80:	07e2                	slli	a5,a5,0x18
 8000c82:	87e1                	srai	a5,a5,0x18
 8000c84:	8fd9                	or	a5,a5,a4
 8000c86:	07e2                	slli	a5,a5,0x18
 8000c88:	87e1                	srai	a5,a5,0x18
 8000c8a:	fef40623          	sb	a5,-20(s0)

    return maxsyscallmth;
 8000c8e:	fec44783          	lbu	a5,-20(s0)
}
 8000c92:	853e                	mv	a0,a5
 8000c94:	5432                	lw	s0,44(sp)
 8000c96:	6145                	addi	sp,sp,48
 8000c98:	8082                	ret

08000c9a <xPortStartScheduler>:

/*
 * See header file for description.
 */
BaseType_t xPortStartScheduler(void)
{
 8000c9a:	1101                	addi	sp,sp,-32
 8000c9c:	ce06                	sw	ra,28(sp)
 8000c9e:	cc22                	sw	s0,24(sp)
 8000ca0:	1000                	addi	s0,sp,32
    /* configMAX_SYSCALL_INTERRUPT_PRIORITY must not be set to 0. */
    configASSERT(configMAX_SYSCALL_INTERRUPT_PRIORITY);

    /* Get the real MTH should be set to ECLIC MTH register */
    uxMaxSysCallMTH = prvCalcMaxSysCallMTH(configMAX_SYSCALL_INTERRUPT_PRIORITY);
 8000ca2:	451d                	li	a0,7
 8000ca4:	3f05                	jal	8000bd4 <prvCalcMaxSysCallMTH>
 8000ca6:	87aa                	mv	a5,a0
 8000ca8:	873e                	mv	a4,a5
 8000caa:	081177b7          	lui	a5,0x8117
 8000cae:	7ee78a23          	sb	a4,2036(a5) # 81177f4 <uxMaxSysCallMTH>
    FREERTOS_PORT_DEBUG("Max SysCall MTH is set to 0x%x\n", uxMaxSysCallMTH);

#if( configASSERT_DEFINED == 1 )
    {
        /* Use the same mask on the maximum system call priority. */
        ucMaxSysCallPriority = prvCheckMaxSysCallPrio(configMAX_SYSCALL_INTERRUPT_PRIORITY);
 8000cb2:	451d                	li	a0,7
 8000cb4:	3545                	jal	8000b54 <prvCheckMaxSysCallPrio>
 8000cb6:	87aa                	mv	a5,a0
 8000cb8:	873e                	mv	a4,a5
 8000cba:	081197b7          	lui	a5,0x8119
 8000cbe:	f4e78823          	sb	a4,-176(a5) # 8118f50 <ucMaxSysCallPriority>
    __RV_CSR_CLEAR(CSR_MSTATUS, MSTATUS_MIE);
 8000cc2:	47a1                	li	a5,8
 8000cc4:	fef42623          	sw	a5,-20(s0)
 8000cc8:	fec42783          	lw	a5,-20(s0)
 8000ccc:	3007b073          	csrc	mstatus,a5
}
 8000cd0:	0001                	nop
#endif /* conifgASSERT_DEFINED */

    __disable_irq();
    /* Start the timer that generates the tick ISR.  Interrupts are disabled
    here already. */
    vPortSetupTimerInterrupt();
 8000cd2:	2d7d                	jal	8001390 <vPortSetupTimerInterrupt>

    /* Initialise the critical nesting count ready for the first task. */
    uxCriticalNesting = 0;
 8000cd4:	081177b7          	lui	a5,0x8117
 8000cd8:	7e07a823          	sw	zero,2032(a5) # 81177f0 <uxCriticalNesting>

    /* Start the first task. */
    prvPortStartFirstTask();
 8000cdc:	ea4ff0ef          	jal	ra,8000380 <prvPortStartFirstTask>
    exit error function to prevent compiler warnings about a static function
    not being called in the case that the application writer overrides this
    functionality by defining configTASK_RETURN_ADDRESS.  Call
    vTaskSwitchContext() so link time optimisation does not remove the
    symbol. */
    vTaskSwitchContext();
 8000ce0:	679020ef          	jal	ra,8003b58 <vTaskSwitchContext>
    prvTaskExitError();
 8000ce4:	3bc5                	jal	8000ad4 <prvTaskExitError>

    /* Should not get here! */
    return 0;
 8000ce6:	4781                	li	a5,0
}
 8000ce8:	853e                	mv	a0,a5
 8000cea:	40f2                	lw	ra,28(sp)
 8000cec:	4462                	lw	s0,24(sp)
 8000cee:	6105                	addi	sp,sp,32
 8000cf0:	8082                	ret

08000cf2 <vPortEnterCritical>:
    configASSERT(uxCriticalNesting == 1000UL);
}
/*-----------------------------------------------------------*/

void vPortEnterCritical(void)
{
 8000cf2:	1101                	addi	sp,sp,-32
 8000cf4:	ce22                	sw	s0,28(sp)
 8000cf6:	1000                	addi	s0,sp,32
    ECLIC_SetMth(uxMaxSysCallMTH);
 8000cf8:	081177b7          	lui	a5,0x8117
 8000cfc:	7f47c783          	lbu	a5,2036(a5) # 81177f4 <uxMaxSysCallMTH>
 8000d00:	fef407a3          	sb	a5,-17(s0)
    ECLIC->MTH = mth;
 8000d04:	000207b7          	lui	a5,0x20
 8000d08:	fef44703          	lbu	a4,-17(s0)
 8000d0c:	00e785a3          	sb	a4,11(a5) # 2000b <__HEAP_SIZE+0x1f80b>
}
 8000d10:	0001                	nop
    __RWMB();
 8000d12:	0ff0000f          	fence
}
 8000d16:	0001                	nop
    portDISABLE_INTERRUPTS();
    uxCriticalNesting++;
 8000d18:	081177b7          	lui	a5,0x8117
 8000d1c:	7f07a783          	lw	a5,2032(a5) # 81177f0 <uxCriticalNesting>
 8000d20:	00178713          	addi	a4,a5,1
 8000d24:	081177b7          	lui	a5,0x8117
 8000d28:	7ee7a823          	sw	a4,2032(a5) # 81177f0 <uxCriticalNesting>
    /* This is not the interrupt safe version of the enter critical function so
    assert() if it is being called from an interrupt context.  Only API
    functions that end in "FromISR" can be used in an interrupt.  Only assert if
    the critical nesting count is 1 to protect against recursive calls if the
    assert function also uses a critical section. */
    if (uxCriticalNesting == 1) {
 8000d2c:	081177b7          	lui	a5,0x8117
 8000d30:	7f07a703          	lw	a4,2032(a5) # 81177f0 <uxCriticalNesting>
 8000d34:	4785                	li	a5,1
 8000d36:	02f71f63          	bne	a4,a5,8000d74 <vPortEnterCritical+0x82>
    return (ECLIC->MTH);
 8000d3a:	000207b7          	lui	a5,0x20
 8000d3e:	00b7c783          	lbu	a5,11(a5) # 2000b <__HEAP_SIZE+0x1f80b>
 8000d42:	0ff7f713          	zext.b	a4,a5
        configASSERT((__ECLIC_GetMth() & portMTH_MASK) == uxMaxSysCallMTH);
 8000d46:	081177b7          	lui	a5,0x8117
 8000d4a:	7f47c783          	lbu	a5,2036(a5) # 81177f4 <uxMaxSysCallMTH>
 8000d4e:	02f70363          	beq	a4,a5,8000d74 <vPortEnterCritical+0x82>
    ECLIC_SetMth(uxMaxSysCallMTH);
 8000d52:	081177b7          	lui	a5,0x8117
 8000d56:	7f47c783          	lbu	a5,2036(a5) # 81177f4 <uxMaxSysCallMTH>
 8000d5a:	fef40723          	sb	a5,-18(s0)
    ECLIC->MTH = mth;
 8000d5e:	000207b7          	lui	a5,0x20
 8000d62:	fee44703          	lbu	a4,-18(s0)
 8000d66:	00e785a3          	sb	a4,11(a5) # 2000b <__HEAP_SIZE+0x1f80b>
}
 8000d6a:	0001                	nop
    __RWMB();
 8000d6c:	0ff0000f          	fence
}
 8000d70:	0001                	nop
 8000d72:	a001                	j	8000d72 <vPortEnterCritical+0x80>
    }
}
 8000d74:	0001                	nop
 8000d76:	4472                	lw	s0,28(sp)
 8000d78:	6105                	addi	sp,sp,32
 8000d7a:	8082                	ret

08000d7c <vPortExitCritical>:
/*-----------------------------------------------------------*/

void vPortExitCritical(void)
{
 8000d7c:	1101                	addi	sp,sp,-32
 8000d7e:	ce22                	sw	s0,28(sp)
 8000d80:	1000                	addi	s0,sp,32
    configASSERT(uxCriticalNesting);
 8000d82:	081177b7          	lui	a5,0x8117
 8000d86:	7f07a783          	lw	a5,2032(a5) # 81177f0 <uxCriticalNesting>
 8000d8a:	e395                	bnez	a5,8000dae <vPortExitCritical+0x32>
    ECLIC_SetMth(uxMaxSysCallMTH);
 8000d8c:	081177b7          	lui	a5,0x8117
 8000d90:	7f47c783          	lbu	a5,2036(a5) # 81177f4 <uxMaxSysCallMTH>
 8000d94:	fef407a3          	sb	a5,-17(s0)
    ECLIC->MTH = mth;
 8000d98:	000207b7          	lui	a5,0x20
 8000d9c:	fef44703          	lbu	a4,-17(s0)
 8000da0:	00e785a3          	sb	a4,11(a5) # 2000b <__HEAP_SIZE+0x1f80b>
}
 8000da4:	0001                	nop
    __RWMB();
 8000da6:	0ff0000f          	fence
}
 8000daa:	0001                	nop
 8000dac:	a001                	j	8000dac <vPortExitCritical+0x30>
    uxCriticalNesting--;
 8000dae:	081177b7          	lui	a5,0x8117
 8000db2:	7f07a783          	lw	a5,2032(a5) # 81177f0 <uxCriticalNesting>
 8000db6:	fff78713          	addi	a4,a5,-1
 8000dba:	081177b7          	lui	a5,0x8117
 8000dbe:	7ee7a823          	sw	a4,2032(a5) # 81177f0 <uxCriticalNesting>
    if (uxCriticalNesting == 0) {
 8000dc2:	081177b7          	lui	a5,0x8117
 8000dc6:	7f07a783          	lw	a5,2032(a5) # 81177f0 <uxCriticalNesting>
 8000dca:	e38d                	bnez	a5,8000dec <vPortExitCritical+0x70>
 8000dcc:	fe040723          	sb	zero,-18(s0)
 8000dd0:	fee44783          	lbu	a5,-18(s0)
 8000dd4:	fef406a3          	sb	a5,-19(s0)
    ECLIC->MTH = mth;
 8000dd8:	000207b7          	lui	a5,0x20
 8000ddc:	fed44703          	lbu	a4,-19(s0)
 8000de0:	00e785a3          	sb	a4,11(a5) # 2000b <__HEAP_SIZE+0x1f80b>
}
 8000de4:	0001                	nop
/*-----------------------------------------------------------*/

portFORCE_INLINE static void vPortSetBASEPRI(uint8_t ulNewMaskValue)
{
    ECLIC_SetMth(ulNewMaskValue);
    __RWMB();
 8000de6:	0ff0000f          	fence
}
 8000dea:	0001                	nop
        portENABLE_INTERRUPTS();
    }
}
 8000dec:	0001                	nop
 8000dee:	4472                	lw	s0,28(sp)
 8000df0:	6105                	addi	sp,sp,32
 8000df2:	8082                	ret

08000df4 <xPortTaskSwitch>:
}
/*-----------------------------------------------------------*/


void xPortTaskSwitch(void)
{
 8000df4:	7139                	addi	sp,sp,-64
 8000df6:	de06                	sw	ra,60(sp)
 8000df8:	dc22                	sw	s0,56(sp)
 8000dfa:	0080                	addi	s0,sp,64
    ECLIC_SetMth(uxMaxSysCallMTH);
 8000dfc:	081177b7          	lui	a5,0x8117
 8000e00:	7f47c783          	lbu	a5,2036(a5) # 81177f4 <uxMaxSysCallMTH>
 8000e04:	fcf407a3          	sb	a5,-49(s0)
    ECLIC->MTH = mth;
 8000e08:	000207b7          	lui	a5,0x20
 8000e0c:	fcf44703          	lbu	a4,-49(s0)
 8000e10:	00e785a3          	sb	a4,11(a5) # 2000b <__HEAP_SIZE+0x1f80b>
}
 8000e14:	0001                	nop
    __RWMB();
 8000e16:	0ff0000f          	fence
}
 8000e1a:	0001                	nop
    id = __RV_CSR_READ(CSR_MHARTID) & 0xFF;
 8000e1c:	f14027f3          	csrr	a5,mhartid
 8000e20:	fef42423          	sw	a5,-24(s0)
 8000e24:	fe842783          	lw	a5,-24(s0)
 8000e28:	0ff7f793          	zext.b	a5,a5
 8000e2c:	fef42223          	sw	a5,-28(s0)
    return id;
 8000e30:	fe442783          	lw	a5,-28(s0)
    unsigned long hartid = __get_hart_id();
 8000e34:	fef42023          	sw	a5,-32(s0)
 8000e38:	fe042783          	lw	a5,-32(s0)
 8000e3c:	fcf42e23          	sw	a5,-36(s0)
    if (hartid == 0) {
 8000e40:	fdc42783          	lw	a5,-36(s0)
 8000e44:	e385                	bnez	a5,8000e64 <xPortTaskSwitch+0x70>
        SysTimer->MSIP &= ~SysTimer_MSIP_MSIP_Msk;
 8000e46:	00030737          	lui	a4,0x30
 8000e4a:	6785                	lui	a5,0x1
 8000e4c:	97ba                	add	a5,a5,a4
 8000e4e:	ffc7a783          	lw	a5,-4(a5) # ffc <__HEAP_SIZE+0x7fc>
 8000e52:	000306b7          	lui	a3,0x30
 8000e56:	ffe7f713          	andi	a4,a5,-2
 8000e5a:	6785                	lui	a5,0x1
 8000e5c:	97b6                	add	a5,a5,a3
 8000e5e:	fee7ae23          	sw	a4,-4(a5) # ffc <__HEAP_SIZE+0x7fc>
}
 8000e62:	a035                	j	8000e8e <xPortTaskSwitch+0x9a>
        uint8_t *addr = (uint8_t *)(SysTimer_CLINT_MSIP_BASE(hartid));
 8000e64:	fdc42783          	lw	a5,-36(s0)
 8000e68:	00279713          	slli	a4,a5,0x2
 8000e6c:	000317b7          	lui	a5,0x31
 8000e70:	97ba                	add	a5,a5,a4
 8000e72:	fcf42c23          	sw	a5,-40(s0)
 8000e76:	fd842783          	lw	a5,-40(s0)
 8000e7a:	fcf42a23          	sw	a5,-44(s0)
 8000e7e:	fc042823          	sw	zero,-48(s0)
    __ASM volatile ("sw %0, 0(%1)" : : "r" (val), "r" (addr));
 8000e82:	fd042783          	lw	a5,-48(s0)
 8000e86:	fd442703          	lw	a4,-44(s0)
 8000e8a:	c31c                	sw	a5,0(a4)
}
 8000e8c:	0001                	nop
}
 8000e8e:	0001                	nop
}
 8000e90:	0001                	nop
    portDISABLE_INTERRUPTS();
    /* Clear Software IRQ, A MUST */
    SysTimer_ClearSWIRQ();
    vTaskSwitchContext();
 8000e92:	4c7020ef          	jal	ra,8003b58 <vTaskSwitchContext>
 8000e96:	fe0407a3          	sb	zero,-17(s0)
 8000e9a:	fef44783          	lbu	a5,-17(s0)
 8000e9e:	fef40723          	sb	a5,-18(s0)
    ECLIC->MTH = mth;
 8000ea2:	000207b7          	lui	a5,0x20
 8000ea6:	fee44703          	lbu	a4,-18(s0)
 8000eaa:	00e785a3          	sb	a4,11(a5) # 2000b <__HEAP_SIZE+0x1f80b>
}
 8000eae:	0001                	nop
    __RWMB();
 8000eb0:	0ff0000f          	fence
}
 8000eb4:	0001                	nop
    portENABLE_INTERRUPTS();
}
 8000eb6:	0001                	nop
 8000eb8:	50f2                	lw	ra,60(sp)
 8000eba:	5462                	lw	s0,56(sp)
 8000ebc:	6121                	addi	sp,sp,64
 8000ebe:	8082                	ret

08000ec0 <eclic_mtip_handler>:
/*-----------------------------------------------------------*/

void xPortSysTickHandler(void)
{
 8000ec0:	7109                	addi	sp,sp,-384
 8000ec2:	16112e23          	sw	ra,380(sp)
 8000ec6:	16812c23          	sw	s0,376(sp)
 8000eca:	17212a23          	sw	s2,372(sp)
 8000ece:	17312823          	sw	s3,368(sp)
 8000ed2:	17412623          	sw	s4,364(sp)
 8000ed6:	17512423          	sw	s5,360(sp)
 8000eda:	0300                	addi	s0,sp,384
    ECLIC_SetMth(uxMaxSysCallMTH);
 8000edc:	081175b7          	lui	a1,0x8117
 8000ee0:	7f45c583          	lbu	a1,2036(a1) # 81177f4 <uxMaxSysCallMTH>
 8000ee4:	eab409a3          	sb	a1,-333(s0)
    ECLIC->MTH = mth;
 8000ee8:	000205b7          	lui	a1,0x20
 8000eec:	eb344503          	lbu	a0,-333(s0)
 8000ef0:	00a585a3          	sb	a0,11(a1) # 2000b <__HEAP_SIZE+0x1f80b>
}
 8000ef4:	0001                	nop
    __RWMB();
 8000ef6:	0ff0000f          	fence
}
 8000efa:	0001                	nop
 8000efc:	14700513          	li	a0,327
 8000f00:	4581                	li	a1,0
 8000f02:	fca42c23          	sw	a0,-40(s0)
 8000f06:	fcb42e23          	sw	a1,-36(s0)
    addr = (uint8_t *)(&(SysTimer->MTIMER));
 8000f0a:	000305b7          	lui	a1,0x30
 8000f0e:	fcb42a23          	sw	a1,-44(s0)
    high0 = __LW(addr + 4);
 8000f12:	fd442583          	lw	a1,-44(s0)
 8000f16:	0591                	addi	a1,a1,4
 8000f18:	fcb42823          	sw	a1,-48(s0)
    __ASM volatile ("lw %0, 0(%1)" : "=r" (result) : "r" (addr));
 8000f1c:	fd042583          	lw	a1,-48(s0)
 8000f20:	418c                	lw	a1,0(a1)
 8000f22:	fcb42623          	sw	a1,-52(s0)
    return result;
 8000f26:	fcc42583          	lw	a1,-52(s0)
 8000f2a:	e8b42623          	sw	a1,-372(s0)
 8000f2e:	fd442583          	lw	a1,-44(s0)
 8000f32:	fcb42423          	sw	a1,-56(s0)
    __ASM volatile ("lw %0, 0(%1)" : "=r" (result) : "r" (addr));
 8000f36:	fc842583          	lw	a1,-56(s0)
 8000f3a:	418c                	lw	a1,0(a1)
 8000f3c:	fcb42223          	sw	a1,-60(s0)
    return result;
 8000f40:	fc442583          	lw	a1,-60(s0)
    low = __LW(addr);
 8000f44:	e8b42423          	sw	a1,-376(s0)
    high = __LW(addr + 4);
 8000f48:	fd442583          	lw	a1,-44(s0)
 8000f4c:	0591                	addi	a1,a1,4
 8000f4e:	fcb42023          	sw	a1,-64(s0)
    __ASM volatile ("lw %0, 0(%1)" : "=r" (result) : "r" (addr));
 8000f52:	fc042583          	lw	a1,-64(s0)
 8000f56:	418c                	lw	a1,0(a1)
 8000f58:	fab42e23          	sw	a1,-68(s0)
    return result;
 8000f5c:	fbc42583          	lw	a1,-68(s0)
 8000f60:	e8b42223          	sw	a1,-380(s0)
    if (high0 != high) {
 8000f64:	e8c42503          	lw	a0,-372(s0)
 8000f68:	e8442583          	lw	a1,-380(s0)
 8000f6c:	00b50f63          	beq	a0,a1,8000f8a <eclic_mtip_handler+0xca>
 8000f70:	fd442583          	lw	a1,-44(s0)
 8000f74:	fab42c23          	sw	a1,-72(s0)
    __ASM volatile ("lw %0, 0(%1)" : "=r" (result) : "r" (addr));
 8000f78:	fb842583          	lw	a1,-72(s0)
 8000f7c:	418c                	lw	a1,0(a1)
 8000f7e:	fab42a23          	sw	a1,-76(s0)
    return result;
 8000f82:	fb442583          	lw	a1,-76(s0)
        low = __LW(addr);
 8000f86:	e8b42423          	sw	a1,-376(s0)
    full = (((uint64_t)high) << 32) | low;
 8000f8a:	e8442583          	lw	a1,-380(s0)
 8000f8e:	8a2e                	mv	s4,a1
 8000f90:	4a81                	li	s5,0
 8000f92:	000a1793          	slli	a5,s4,0x0
 8000f96:	4701                	li	a4,0
 8000f98:	e8842583          	lw	a1,-376(s0)
 8000f9c:	862e                	mv	a2,a1
 8000f9e:	4681                	li	a3,0
 8000fa0:	00c765b3          	or	a1,a4,a2
 8000fa4:	fab42423          	sw	a1,-88(s0)
 8000fa8:	8fd5                	or	a5,a5,a3
 8000faa:	faf42623          	sw	a5,-84(s0)
    return full;
 8000fae:	fa842703          	lw	a4,-88(s0)
 8000fb2:	fac42783          	lw	a5,-84(s0)
 * - \ref SysTimer_SetCompareValue
 * - \ref SysTimer_SetLoadValue
 */
__STATIC_FORCEINLINE uint32_t SysTick_Reload(uint64_t ticks)
{
    uint64_t cur_ticks = SysTimer_GetLoadValue();
 8000fb6:	fae42023          	sw	a4,-96(s0)
 8000fba:	faf42223          	sw	a5,-92(s0)
    uint64_t reload_ticks = ticks + cur_ticks;
 8000fbe:	fd842603          	lw	a2,-40(s0)
 8000fc2:	fdc42683          	lw	a3,-36(s0)
 8000fc6:	fa042503          	lw	a0,-96(s0)
 8000fca:	fa442583          	lw	a1,-92(s0)
 8000fce:	00a60733          	add	a4,a2,a0
 8000fd2:	82ba                	mv	t0,a4
 8000fd4:	00c2b2b3          	sltu	t0,t0,a2
 8000fd8:	00b687b3          	add	a5,a3,a1
 8000fdc:	00f286b3          	add	a3,t0,a5
 8000fe0:	87b6                	mv	a5,a3
 8000fe2:	f8e42c23          	sw	a4,-104(s0)
 8000fe6:	f8f42e23          	sw	a5,-100(s0)

    if (__USUALLY(reload_ticks > cur_ticks)) {
 8000fea:	4685                	li	a3,1
 8000fec:	f9c42703          	lw	a4,-100(s0)
 8000ff0:	fa442783          	lw	a5,-92(s0)
 8000ff4:	00e7ef63          	bltu	a5,a4,8001012 <eclic_mtip_handler+0x152>
 8000ff8:	f9c42703          	lw	a4,-100(s0)
 8000ffc:	fa442783          	lw	a5,-92(s0)
 8001000:	00f71863          	bne	a4,a5,8001010 <eclic_mtip_handler+0x150>
 8001004:	f9842703          	lw	a4,-104(s0)
 8001008:	fa042783          	lw	a5,-96(s0)
 800100c:	00e7e363          	bltu	a5,a4,8001012 <eclic_mtip_handler+0x152>
 8001010:	4681                	li	a3,0
 8001012:	0ff6f793          	zext.b	a5,a3
 8001016:	12078363          	beqz	a5,800113c <eclic_mtip_handler+0x27c>
 800101a:	f9842703          	lw	a4,-104(s0)
 800101e:	f9c42783          	lw	a5,-100(s0)
 8001022:	f8e42823          	sw	a4,-112(s0)
 8001026:	f8f42a23          	sw	a5,-108(s0)
    id = __RV_CSR_READ(CSR_MHARTID) & 0xFF;
 800102a:	f14027f3          	csrr	a5,mhartid
 800102e:	f8f42623          	sw	a5,-116(s0)
 8001032:	f8c42783          	lw	a5,-116(s0)
 8001036:	0ff7f793          	zext.b	a5,a5
 800103a:	f8f42423          	sw	a5,-120(s0)
    return id;
 800103e:	f8842783          	lw	a5,-120(s0)
    unsigned long hartid = __get_hart_id();
 8001042:	f8f42223          	sw	a5,-124(s0)
 8001046:	f9042703          	lw	a4,-112(s0)
 800104a:	f9442783          	lw	a5,-108(s0)
 800104e:	f6e42c23          	sw	a4,-136(s0)
 8001052:	f6f42e23          	sw	a5,-132(s0)
 8001056:	f8442783          	lw	a5,-124(s0)
 800105a:	f6f42a23          	sw	a5,-140(s0)
    if (hartid == 0) {
 800105e:	f7442783          	lw	a5,-140(s0)
 8001062:	e7a5                	bnez	a5,80010ca <eclic_mtip_handler+0x20a>
        addr = (uint8_t *)(&(SysTimer->MTIMERCMP));
 8001064:	000307b7          	lui	a5,0x30
 8001068:	07a1                	addi	a5,a5,8
 800106a:	f6f42823          	sw	a5,-144(s0)
 800106e:	f7042783          	lw	a5,-144(s0)
 8001072:	f6f42623          	sw	a5,-148(s0)
 8001076:	57fd                	li	a5,-1
 8001078:	f6f42423          	sw	a5,-152(s0)
    __ASM volatile ("sw %0, 0(%1)" : : "r" (val), "r" (addr));
 800107c:	f6842783          	lw	a5,-152(s0)
 8001080:	f6c42703          	lw	a4,-148(s0)
 8001084:	c31c                	sw	a5,0(a4)
}
 8001086:	0001                	nop
        __SW(addr + 4, (uint32_t)(value >> 32));
 8001088:	f7042783          	lw	a5,-144(s0)
 800108c:	0791                	addi	a5,a5,4
 800108e:	f7c42703          	lw	a4,-132(s0)
 8001092:	00075913          	srli	s2,a4,0x0
 8001096:	4981                	li	s3,0
 8001098:	874a                	mv	a4,s2
 800109a:	f6f42223          	sw	a5,-156(s0)
 800109e:	f6e42023          	sw	a4,-160(s0)
    __ASM volatile ("sw %0, 0(%1)" : : "r" (val), "r" (addr));
 80010a2:	f6042783          	lw	a5,-160(s0)
 80010a6:	f6442703          	lw	a4,-156(s0)
 80010aa:	c31c                	sw	a5,0(a4)
}
 80010ac:	0001                	nop
        __SW(addr, (uint32_t)(value));
 80010ae:	f7842783          	lw	a5,-136(s0)
 80010b2:	f7042703          	lw	a4,-144(s0)
 80010b6:	f4e42e23          	sw	a4,-164(s0)
 80010ba:	f4f42c23          	sw	a5,-168(s0)
    __ASM volatile ("sw %0, 0(%1)" : : "r" (val), "r" (addr));
 80010be:	f5842783          	lw	a5,-168(s0)
 80010c2:	f5c42703          	lw	a4,-164(s0)
 80010c6:	c31c                	sw	a5,0(a4)
}
 80010c8:	a885                	j	8001138 <eclic_mtip_handler+0x278>
        uint8_t *addr = (uint8_t *)(SysTimer_CLINT_MTIMECMP_BASE(hartid));
 80010ca:	f7442783          	lw	a5,-140(s0)
 80010ce:	00379713          	slli	a4,a5,0x3
 80010d2:	000357b7          	lui	a5,0x35
 80010d6:	97ba                	add	a5,a5,a4
 80010d8:	f4f42a23          	sw	a5,-172(s0)
 80010dc:	f5442783          	lw	a5,-172(s0)
 80010e0:	f4f42823          	sw	a5,-176(s0)
 80010e4:	57fd                	li	a5,-1
 80010e6:	f4f42623          	sw	a5,-180(s0)
    __ASM volatile ("sw %0, 0(%1)" : : "r" (val), "r" (addr));
 80010ea:	f4c42783          	lw	a5,-180(s0)
 80010ee:	f5042703          	lw	a4,-176(s0)
 80010f2:	c31c                	sw	a5,0(a4)
}
 80010f4:	0001                	nop
        __SW(addr + 4, (uint32_t)(value >> 32));
 80010f6:	f5442783          	lw	a5,-172(s0)
 80010fa:	0791                	addi	a5,a5,4
 80010fc:	f7c42703          	lw	a4,-132(s0)
 8001100:	00075f13          	srli	t5,a4,0x0
 8001104:	4f81                	li	t6,0
 8001106:	877a                	mv	a4,t5
 8001108:	f4f42423          	sw	a5,-184(s0)
 800110c:	f4e42223          	sw	a4,-188(s0)
    __ASM volatile ("sw %0, 0(%1)" : : "r" (val), "r" (addr));
 8001110:	f4442783          	lw	a5,-188(s0)
 8001114:	f4842703          	lw	a4,-184(s0)
 8001118:	c31c                	sw	a5,0(a4)
}
 800111a:	0001                	nop
        __SW(addr, (uint32_t)value);
 800111c:	f7842783          	lw	a5,-136(s0)
 8001120:	f5442703          	lw	a4,-172(s0)
 8001124:	f4e42023          	sw	a4,-192(s0)
 8001128:	f2f42e23          	sw	a5,-196(s0)
    __ASM volatile ("sw %0, 0(%1)" : : "r" (val), "r" (addr));
 800112c:	f3c42783          	lw	a5,-196(s0)
 8001130:	f4042703          	lw	a4,-192(s0)
 8001134:	c31c                	sw	a5,0(a4)
}
 8001136:	0001                	nop
}
 8001138:	0001                	nop
}
 800113a:	aa51                	j	80012ce <eclic_mtip_handler+0x40e>
 800113c:	4701                	li	a4,0
 800113e:	4781                	li	a5,0
 8001140:	f2e42823          	sw	a4,-208(s0)
 8001144:	f2f42a23          	sw	a5,-204(s0)
    addr = (uint8_t *)(&(SysTimer->MTIMER));
 8001148:	000307b7          	lui	a5,0x30
 800114c:	f2f42623          	sw	a5,-212(s0)
 8001150:	f2c42783          	lw	a5,-212(s0)
 8001154:	f2f42423          	sw	a5,-216(s0)
 8001158:	f2042223          	sw	zero,-220(s0)
    __ASM volatile ("sw %0, 0(%1)" : : "r" (val), "r" (addr));
 800115c:	f2442783          	lw	a5,-220(s0)
 8001160:	f2842703          	lw	a4,-216(s0)
 8001164:	c31c                	sw	a5,0(a4)
}
 8001166:	0001                	nop
    __SW(addr + 4, (uint32_t)(value >> 32));
 8001168:	f2c42783          	lw	a5,-212(s0)
 800116c:	0791                	addi	a5,a5,4
 800116e:	f3442703          	lw	a4,-204(s0)
 8001172:	00075e13          	srli	t3,a4,0x0
 8001176:	4e81                	li	t4,0
 8001178:	8772                	mv	a4,t3
 800117a:	f2f42023          	sw	a5,-224(s0)
 800117e:	f0e42e23          	sw	a4,-228(s0)
    __ASM volatile ("sw %0, 0(%1)" : : "r" (val), "r" (addr));
 8001182:	f1c42783          	lw	a5,-228(s0)
 8001186:	f2042703          	lw	a4,-224(s0)
 800118a:	c31c                	sw	a5,0(a4)
}
 800118c:	0001                	nop
    __SW(addr, (uint32_t)(value));
 800118e:	f3042783          	lw	a5,-208(s0)
 8001192:	f2c42703          	lw	a4,-212(s0)
 8001196:	f0e42c23          	sw	a4,-232(s0)
 800119a:	f0f42a23          	sw	a5,-236(s0)
    __ASM volatile ("sw %0, 0(%1)" : : "r" (val), "r" (addr));
 800119e:	f1442783          	lw	a5,-236(s0)
 80011a2:	f1842703          	lw	a4,-232(s0)
 80011a6:	c31c                	sw	a5,0(a4)
}
 80011a8:	0001                	nop
}
 80011aa:	0001                	nop
 80011ac:	fd842703          	lw	a4,-40(s0)
 80011b0:	fdc42783          	lw	a5,-36(s0)
 80011b4:	f0e42423          	sw	a4,-248(s0)
 80011b8:	f0f42623          	sw	a5,-244(s0)
    id = __RV_CSR_READ(CSR_MHARTID) & 0xFF;
 80011bc:	f14027f3          	csrr	a5,mhartid
 80011c0:	f0f42223          	sw	a5,-252(s0)
 80011c4:	f0442783          	lw	a5,-252(s0)
 80011c8:	0ff7f793          	zext.b	a5,a5
 80011cc:	f0f42023          	sw	a5,-256(s0)
    return id;
 80011d0:	f0042783          	lw	a5,-256(s0)
    unsigned long hartid = __get_hart_id();
 80011d4:	eef42e23          	sw	a5,-260(s0)
 80011d8:	f0842703          	lw	a4,-248(s0)
 80011dc:	f0c42783          	lw	a5,-244(s0)
 80011e0:	eee42823          	sw	a4,-272(s0)
 80011e4:	eef42a23          	sw	a5,-268(s0)
 80011e8:	efc42783          	lw	a5,-260(s0)
 80011ec:	eef42623          	sw	a5,-276(s0)
    if (hartid == 0) {
 80011f0:	eec42783          	lw	a5,-276(s0)
 80011f4:	e7a5                	bnez	a5,800125c <eclic_mtip_handler+0x39c>
        addr = (uint8_t *)(&(SysTimer->MTIMERCMP));
 80011f6:	000307b7          	lui	a5,0x30
 80011fa:	07a1                	addi	a5,a5,8
 80011fc:	eef42423          	sw	a5,-280(s0)
 8001200:	ee842783          	lw	a5,-280(s0)
 8001204:	eef42223          	sw	a5,-284(s0)
 8001208:	57fd                	li	a5,-1
 800120a:	eef42023          	sw	a5,-288(s0)
    __ASM volatile ("sw %0, 0(%1)" : : "r" (val), "r" (addr));
 800120e:	ee042783          	lw	a5,-288(s0)
 8001212:	ee442703          	lw	a4,-284(s0)
 8001216:	c31c                	sw	a5,0(a4)
}
 8001218:	0001                	nop
        __SW(addr + 4, (uint32_t)(value >> 32));
 800121a:	ee842783          	lw	a5,-280(s0)
 800121e:	0791                	addi	a5,a5,4
 8001220:	ef442703          	lw	a4,-268(s0)
 8001224:	00075313          	srli	t1,a4,0x0
 8001228:	4381                	li	t2,0
 800122a:	871a                	mv	a4,t1
 800122c:	ecf42e23          	sw	a5,-292(s0)
 8001230:	ece42c23          	sw	a4,-296(s0)
    __ASM volatile ("sw %0, 0(%1)" : : "r" (val), "r" (addr));
 8001234:	ed842783          	lw	a5,-296(s0)
 8001238:	edc42703          	lw	a4,-292(s0)
 800123c:	c31c                	sw	a5,0(a4)
}
 800123e:	0001                	nop
        __SW(addr, (uint32_t)(value));
 8001240:	ef042783          	lw	a5,-272(s0)
 8001244:	ee842703          	lw	a4,-280(s0)
 8001248:	ece42a23          	sw	a4,-300(s0)
 800124c:	ecf42823          	sw	a5,-304(s0)
    __ASM volatile ("sw %0, 0(%1)" : : "r" (val), "r" (addr));
 8001250:	ed042783          	lw	a5,-304(s0)
 8001254:	ed442703          	lw	a4,-300(s0)
 8001258:	c31c                	sw	a5,0(a4)
}
 800125a:	a885                	j	80012ca <eclic_mtip_handler+0x40a>
        uint8_t *addr = (uint8_t *)(SysTimer_CLINT_MTIMECMP_BASE(hartid));
 800125c:	eec42783          	lw	a5,-276(s0)
 8001260:	00379713          	slli	a4,a5,0x3
 8001264:	000357b7          	lui	a5,0x35
 8001268:	97ba                	add	a5,a5,a4
 800126a:	ecf42623          	sw	a5,-308(s0)
 800126e:	ecc42783          	lw	a5,-308(s0)
 8001272:	ecf42423          	sw	a5,-312(s0)
 8001276:	57fd                	li	a5,-1
 8001278:	ecf42223          	sw	a5,-316(s0)
    __ASM volatile ("sw %0, 0(%1)" : : "r" (val), "r" (addr));
 800127c:	ec442783          	lw	a5,-316(s0)
 8001280:	ec842703          	lw	a4,-312(s0)
 8001284:	c31c                	sw	a5,0(a4)
}
 8001286:	0001                	nop
        __SW(addr + 4, (uint32_t)(value >> 32));
 8001288:	ecc42783          	lw	a5,-308(s0)
 800128c:	0791                	addi	a5,a5,4
 800128e:	ef442703          	lw	a4,-268(s0)
 8001292:	00075813          	srli	a6,a4,0x0
 8001296:	4881                	li	a7,0
 8001298:	8742                	mv	a4,a6
 800129a:	ecf42023          	sw	a5,-320(s0)
 800129e:	eae42e23          	sw	a4,-324(s0)
    __ASM volatile ("sw %0, 0(%1)" : : "r" (val), "r" (addr));
 80012a2:	ebc42783          	lw	a5,-324(s0)
 80012a6:	ec042703          	lw	a4,-320(s0)
 80012aa:	c31c                	sw	a5,0(a4)
}
 80012ac:	0001                	nop
        __SW(addr, (uint32_t)value);
 80012ae:	ef042783          	lw	a5,-272(s0)
 80012b2:	ecc42703          	lw	a4,-308(s0)
 80012b6:	eae42c23          	sw	a4,-328(s0)
 80012ba:	eaf42a23          	sw	a5,-332(s0)
    __ASM volatile ("sw %0, 0(%1)" : : "r" (val), "r" (addr));
 80012be:	eb442783          	lw	a5,-332(s0)
 80012c2:	eb842703          	lw	a4,-328(s0)
 80012c6:	c31c                	sw	a5,0(a4)
}
 80012c8:	0001                	nop
}
 80012ca:	0001                	nop
}
 80012cc:	0001                	nop
    known. */
    portDISABLE_INTERRUPTS();
    {
        SysTick_Reload(SYSTICK_TICK_CONST);
        /* Increment the RTOS tick. */
        if (xTaskIncrementTick() != pdFALSE) {
 80012ce:	618020ef          	jal	ra,80038e6 <xTaskIncrementTick>
 80012d2:	87aa                	mv	a5,a0
 80012d4:	cfbd                	beqz	a5,8001352 <eclic_mtip_handler+0x492>
    id = __RV_CSR_READ(CSR_MHARTID) & 0xFF;
 80012d6:	f14027f3          	csrr	a5,mhartid
 80012da:	eaf42623          	sw	a5,-340(s0)
 80012de:	eac42783          	lw	a5,-340(s0)
 80012e2:	0ff7f793          	zext.b	a5,a5
 80012e6:	eaf42423          	sw	a5,-344(s0)
    return id;
 80012ea:	ea842783          	lw	a5,-344(s0)
    unsigned long hartid = __get_hart_id();
 80012ee:	eaf42223          	sw	a5,-348(s0)
 80012f2:	ea442783          	lw	a5,-348(s0)
 80012f6:	eaf42023          	sw	a5,-352(s0)
    if (hartid == 0) {
 80012fa:	ea042783          	lw	a5,-352(s0)
 80012fe:	e385                	bnez	a5,800131e <eclic_mtip_handler+0x45e>
        SysTimer->MSIP |= SysTimer_MSIP_MSIP_Msk;
 8001300:	00030737          	lui	a4,0x30
 8001304:	6785                	lui	a5,0x1
 8001306:	97ba                	add	a5,a5,a4
 8001308:	ffc7a783          	lw	a5,-4(a5) # ffc <__HEAP_SIZE+0x7fc>
 800130c:	000306b7          	lui	a3,0x30
 8001310:	0017e713          	ori	a4,a5,1
 8001314:	6785                	lui	a5,0x1
 8001316:	97b6                	add	a5,a5,a3
 8001318:	fee7ae23          	sw	a4,-4(a5) # ffc <__HEAP_SIZE+0x7fc>
}
 800131c:	a03d                	j	800134a <eclic_mtip_handler+0x48a>
        uint8_t *addr = (uint8_t *)(SysTimer_CLINT_MSIP_BASE(hartid));
 800131e:	ea042783          	lw	a5,-352(s0)
 8001322:	00279713          	slli	a4,a5,0x2
 8001326:	000317b7          	lui	a5,0x31
 800132a:	97ba                	add	a5,a5,a4
 800132c:	e8f42e23          	sw	a5,-356(s0)
 8001330:	e9c42783          	lw	a5,-356(s0)
 8001334:	e8f42c23          	sw	a5,-360(s0)
 8001338:	4785                	li	a5,1
 800133a:	e8f42a23          	sw	a5,-364(s0)
    __ASM volatile ("sw %0, 0(%1)" : : "r" (val), "r" (addr));
 800133e:	e9442783          	lw	a5,-364(s0)
 8001342:	e9842703          	lw	a4,-360(s0)
 8001346:	c31c                	sw	a5,0(a4)
}
 8001348:	0001                	nop
}
 800134a:	0001                	nop
}
 800134c:	0001                	nop
            /* A context switch is required.  Context switching is performed in
            the SWI interrupt.  Pend the SWI interrupt. */
            portYIELD();
 800134e:	0ff0000f          	fence
 8001352:	e80409a3          	sb	zero,-365(s0)
 8001356:	e9344783          	lbu	a5,-365(s0)
 800135a:	e8f40923          	sb	a5,-366(s0)
    ECLIC->MTH = mth;
 800135e:	000207b7          	lui	a5,0x20
 8001362:	e9244703          	lbu	a4,-366(s0)
 8001366:	00e785a3          	sb	a4,11(a5) # 2000b <__HEAP_SIZE+0x1f80b>
}
 800136a:	0001                	nop
    __RWMB();
 800136c:	0ff0000f          	fence
}
 8001370:	0001                	nop
        }
    }
    portENABLE_INTERRUPTS();
}
 8001372:	0001                	nop
 8001374:	17c12083          	lw	ra,380(sp)
 8001378:	17812403          	lw	s0,376(sp)
 800137c:	17412903          	lw	s2,372(sp)
 8001380:	17012983          	lw	s3,368(sp)
 8001384:	16c12a03          	lw	s4,364(sp)
 8001388:	16812a83          	lw	s5,360(sp)
 800138c:	6119                	addi	sp,sp,384
 800138e:	8082                	ret

08001390 <vPortSetupTimerInterrupt>:
/*
 * Setup the systick timer to generate the tick interrupts at the required
 * frequency.
 */
__attribute__((weak)) void vPortSetupTimerInterrupt(void)
{
 8001390:	7159                	addi	sp,sp,-112
 8001392:	d686                	sw	ra,108(sp)
 8001394:	d4a2                	sw	s0,104(sp)
 8001396:	1880                	addi	s0,sp,112
        ulStoppedTimerCompensation = portMISSED_COUNTS_FACTOR / (configCPU_CLOCK_HZ / configSYSTICK_CLOCK_HZ);
        FREERTOS_PORT_DEBUG("CountsForOneTick, SuppressedTicks and TimerCompensation: %u, %u, %u\n", \
                            (uint32_t)ulTimerCountsForOneTick, (uint32_t)xMaximumPossibleSuppressedTicks, (uint32_t)ulStoppedTimerCompensation);
    }
#endif /* configUSE_TICKLESS_IDLE */
    TickType_t ticks = SYSTICK_TICK_CONST;
 8001398:	14700713          	li	a4,327
 800139c:	4781                	li	a5,0
 800139e:	fee42423          	sw	a4,-24(s0)
 80013a2:	fef42623          	sw	a5,-20(s0)

    /* Make SWI and SysTick the lowest priority interrupts. */
    /* Stop and clear the SysTimer. SysTimer as Non-Vector Interrupt */
    SysTick_Config(ticks);
 80013a6:	fe842503          	lw	a0,-24(s0)
 80013aa:	fec42583          	lw	a1,-20(s0)
 80013ae:	af0ff0ef          	jal	ra,800069e <SysTick_Config>
 80013b2:	479d                	li	a5,7
 80013b4:	f8f42a23          	sw	a5,-108(s0)
    ECLIC->CTRL[IRQn].INTIE &= ~CLIC_INTIE_IE_Msk;
 80013b8:	00020737          	lui	a4,0x20
 80013bc:	f9442783          	lw	a5,-108(s0)
 80013c0:	40078793          	addi	a5,a5,1024
 80013c4:	078a                	slli	a5,a5,0x2
 80013c6:	97ba                	add	a5,a5,a4
 80013c8:	0017c783          	lbu	a5,1(a5)
 80013cc:	0ff7f793          	zext.b	a5,a5
 80013d0:	000206b7          	lui	a3,0x20
 80013d4:	9bf9                	andi	a5,a5,-2
 80013d6:	0ff7f713          	zext.b	a4,a5
 80013da:	f9442783          	lw	a5,-108(s0)
 80013de:	40078793          	addi	a5,a5,1024
 80013e2:	078a                	slli	a5,a5,0x2
 80013e4:	97b6                	add	a5,a5,a3
 80013e6:	00e780a3          	sb	a4,1(a5)
}
 80013ea:	0001                	nop
 80013ec:	479d                	li	a5,7
 80013ee:	faf42823          	sw	a5,-80(s0)
 80013f2:	fa0407a3          	sb	zero,-81(s0)
    return ((uint32_t)((ECLIC->CFG & CLIC_CLICCFG_NLBIT_Msk) >> CLIC_CLICCFG_NLBIT_Pos));
 80013f6:	000207b7          	lui	a5,0x20
 80013fa:	0007c783          	lbu	a5,0(a5) # 20000 <__HEAP_SIZE+0x1f800>
 80013fe:	0ff7f793          	zext.b	a5,a5
 8001402:	8385                	srli	a5,a5,0x1
 8001404:	8bbd                	andi	a5,a5,15
    uint8_t nlbits = __ECLIC_GetCfgNlbits();
 8001406:	faf40723          	sb	a5,-82(s0)
    return ((uint32_t)((ECLIC->INFO & CLIC_CLICINFO_CTLBIT_Msk) >> CLIC_CLICINFO_CTLBIT_Pos));
 800140a:	000207b7          	lui	a5,0x20
 800140e:	43dc                	lw	a5,4(a5)
 8001410:	83d5                	srli	a5,a5,0x15
 8001412:	8bbd                	andi	a5,a5,15
    uint8_t intctlbits = (uint8_t)__ECLIC_INTCTLBITS;
 8001414:	faf406a3          	sb	a5,-83(s0)
    if (nlbits == 0) {
 8001418:	fae44783          	lbu	a5,-82(s0)
 800141c:	c7f1                	beqz	a5,80014e8 <vPortSetupTimerInterrupt+0x158>
    if (nlbits > intctlbits) {
 800141e:	fae44703          	lbu	a4,-82(s0)
 8001422:	fad44783          	lbu	a5,-83(s0)
 8001426:	00e7f663          	bgeu	a5,a4,8001432 <vPortSetupTimerInterrupt+0xa2>
        nlbits = intctlbits;
 800142a:	fad44783          	lbu	a5,-83(s0)
 800142e:	faf40723          	sb	a5,-82(s0)
    uint8_t maxlvl = ((1 << nlbits) - 1);
 8001432:	fae44783          	lbu	a5,-82(s0)
 8001436:	4705                	li	a4,1
 8001438:	00f717b3          	sll	a5,a4,a5
 800143c:	0ff7f793          	zext.b	a5,a5
 8001440:	17fd                	addi	a5,a5,-1
 8001442:	faf40623          	sb	a5,-84(s0)
    if (lvl_abs > maxlvl) {
 8001446:	faf44703          	lbu	a4,-81(s0)
 800144a:	fac44783          	lbu	a5,-84(s0)
 800144e:	00e7f663          	bgeu	a5,a4,800145a <vPortSetupTimerInterrupt+0xca>
        lvl_abs = maxlvl;
 8001452:	fac44783          	lbu	a5,-84(s0)
 8001456:	faf407a3          	sb	a5,-81(s0)
    uint8_t lvl = lvl_abs << (ECLIC_MAX_NLBITS - nlbits);
 800145a:	faf44703          	lbu	a4,-81(s0)
 800145e:	fae44783          	lbu	a5,-82(s0)
 8001462:	46a1                	li	a3,8
 8001464:	40f687b3          	sub	a5,a3,a5
 8001468:	00f717b3          	sll	a5,a4,a5
 800146c:	faf405a3          	sb	a5,-85(s0)
 8001470:	fb042783          	lw	a5,-80(s0)
 8001474:	faf42223          	sw	a5,-92(s0)
    return (ECLIC->CTRL[IRQn].INTCTRL);
 8001478:	00020737          	lui	a4,0x20
 800147c:	fa442783          	lw	a5,-92(s0)
 8001480:	40078793          	addi	a5,a5,1024 # 20400 <__HEAP_SIZE+0x1fc00>
 8001484:	078a                	slli	a5,a5,0x2
 8001486:	97ba                	add	a5,a5,a4
 8001488:	0037c783          	lbu	a5,3(a5)
 800148c:	0ff7f793          	zext.b	a5,a5
    uint8_t cur_ctrl = __ECLIC_GetCtrlIRQ(IRQn);
 8001490:	faf401a3          	sb	a5,-93(s0)
    cur_ctrl = cur_ctrl << nlbits;
 8001494:	fa344703          	lbu	a4,-93(s0)
 8001498:	fae44783          	lbu	a5,-82(s0)
 800149c:	00f717b3          	sll	a5,a4,a5
 80014a0:	faf401a3          	sb	a5,-93(s0)
    cur_ctrl = cur_ctrl >> nlbits;
 80014a4:	fa344703          	lbu	a4,-93(s0)
 80014a8:	fae44783          	lbu	a5,-82(s0)
 80014ac:	40f757b3          	sra	a5,a4,a5
 80014b0:	faf401a3          	sb	a5,-93(s0)
    __ECLIC_SetCtrlIRQ(IRQn, (cur_ctrl | lvl));
 80014b4:	fab44703          	lbu	a4,-85(s0)
 80014b8:	fa344783          	lbu	a5,-93(s0)
 80014bc:	8fd9                	or	a5,a5,a4
 80014be:	0ff7f793          	zext.b	a5,a5
 80014c2:	fb042703          	lw	a4,-80(s0)
 80014c6:	f8e42e23          	sw	a4,-100(s0)
 80014ca:	f8f40da3          	sb	a5,-101(s0)
    ECLIC->CTRL[IRQn].INTCTRL = intctrl;
 80014ce:	00020737          	lui	a4,0x20
 80014d2:	f9c42783          	lw	a5,-100(s0)
 80014d6:	40078793          	addi	a5,a5,1024
 80014da:	078a                	slli	a5,a5,0x2
 80014dc:	97ba                	add	a5,a5,a4
 80014de:	f9b44703          	lbu	a4,-101(s0)
 80014e2:	00e781a3          	sb	a4,3(a5)
}
 80014e6:	a011                	j	80014ea <vPortSetupTimerInterrupt+0x15a>
        return;
 80014e8:	0001                	nop
 80014ea:	479d                	li	a5,7
 80014ec:	faf42c23          	sw	a5,-72(s0)
 80014f0:	fa042a23          	sw	zero,-76(s0)
    ECLIC->CTRL[IRQn].INTATTR &= ~CLIC_INTATTR_SHV_Msk;
 80014f4:	00020737          	lui	a4,0x20
 80014f8:	fb842783          	lw	a5,-72(s0)
 80014fc:	40078793          	addi	a5,a5,1024
 8001500:	078a                	slli	a5,a5,0x2
 8001502:	97ba                	add	a5,a5,a4
 8001504:	0027c783          	lbu	a5,2(a5)
 8001508:	0ff7f793          	zext.b	a5,a5
 800150c:	000206b7          	lui	a3,0x20
 8001510:	9bf9                	andi	a5,a5,-2
 8001512:	0ff7f713          	zext.b	a4,a5
 8001516:	fb842783          	lw	a5,-72(s0)
 800151a:	40078793          	addi	a5,a5,1024
 800151e:	078a                	slli	a5,a5,0x2
 8001520:	97b6                	add	a5,a5,a3
 8001522:	00e78123          	sb	a4,2(a5)
    ECLIC->CTRL[IRQn].INTATTR |= (uint8_t)(shv << CLIC_INTATTR_SHV_Pos);
 8001526:	00020737          	lui	a4,0x20
 800152a:	fb842783          	lw	a5,-72(s0)
 800152e:	40078793          	addi	a5,a5,1024
 8001532:	078a                	slli	a5,a5,0x2
 8001534:	97ba                	add	a5,a5,a4
 8001536:	0027c783          	lbu	a5,2(a5)
 800153a:	0ff7f713          	zext.b	a4,a5
 800153e:	fb442783          	lw	a5,-76(s0)
 8001542:	0ff7f793          	zext.b	a5,a5
 8001546:	000206b7          	lui	a3,0x20
 800154a:	8fd9                	or	a5,a5,a4
 800154c:	0ff7f713          	zext.b	a4,a5
 8001550:	fb842783          	lw	a5,-72(s0)
 8001554:	40078793          	addi	a5,a5,1024
 8001558:	078a                	slli	a5,a5,0x2
 800155a:	97b6                	add	a5,a5,a3
 800155c:	00e78123          	sb	a4,2(a5)
}
 8001560:	0001                	nop
 8001562:	479d                	li	a5,7
 8001564:	faf42e23          	sw	a5,-68(s0)
    ECLIC->CTRL[IRQn].INTIE |= CLIC_INTIE_IE_Msk;
 8001568:	00020737          	lui	a4,0x20
 800156c:	fbc42783          	lw	a5,-68(s0)
 8001570:	40078793          	addi	a5,a5,1024
 8001574:	078a                	slli	a5,a5,0x2
 8001576:	97ba                	add	a5,a5,a4
 8001578:	0017c783          	lbu	a5,1(a5)
 800157c:	0ff7f793          	zext.b	a5,a5
 8001580:	000206b7          	lui	a3,0x20
 8001584:	0017e793          	ori	a5,a5,1
 8001588:	0ff7f713          	zext.b	a4,a5
 800158c:	fbc42783          	lw	a5,-68(s0)
 8001590:	40078793          	addi	a5,a5,1024
 8001594:	078a                	slli	a5,a5,0x2
 8001596:	97b6                	add	a5,a5,a3
 8001598:	00e780a3          	sb	a4,1(a5)
}
 800159c:	0001                	nop
 800159e:	478d                	li	a5,3
 80015a0:	fcf42223          	sw	a5,-60(s0)
 80015a4:	4785                	li	a5,1
 80015a6:	fcf42023          	sw	a5,-64(s0)
    ECLIC->CTRL[IRQn].INTATTR &= ~CLIC_INTATTR_SHV_Msk;
 80015aa:	00020737          	lui	a4,0x20
 80015ae:	fc442783          	lw	a5,-60(s0)
 80015b2:	40078793          	addi	a5,a5,1024
 80015b6:	078a                	slli	a5,a5,0x2
 80015b8:	97ba                	add	a5,a5,a4
 80015ba:	0027c783          	lbu	a5,2(a5)
 80015be:	0ff7f793          	zext.b	a5,a5
 80015c2:	000206b7          	lui	a3,0x20
 80015c6:	9bf9                	andi	a5,a5,-2
 80015c8:	0ff7f713          	zext.b	a4,a5
 80015cc:	fc442783          	lw	a5,-60(s0)
 80015d0:	40078793          	addi	a5,a5,1024
 80015d4:	078a                	slli	a5,a5,0x2
 80015d6:	97b6                	add	a5,a5,a3
 80015d8:	00e78123          	sb	a4,2(a5)
    ECLIC->CTRL[IRQn].INTATTR |= (uint8_t)(shv << CLIC_INTATTR_SHV_Pos);
 80015dc:	00020737          	lui	a4,0x20
 80015e0:	fc442783          	lw	a5,-60(s0)
 80015e4:	40078793          	addi	a5,a5,1024
 80015e8:	078a                	slli	a5,a5,0x2
 80015ea:	97ba                	add	a5,a5,a4
 80015ec:	0027c783          	lbu	a5,2(a5)
 80015f0:	0ff7f713          	zext.b	a4,a5
 80015f4:	fc042783          	lw	a5,-64(s0)
 80015f8:	0ff7f793          	zext.b	a5,a5
 80015fc:	000206b7          	lui	a3,0x20
 8001600:	8fd9                	or	a5,a5,a4
 8001602:	0ff7f713          	zext.b	a4,a5
 8001606:	fc442783          	lw	a5,-60(s0)
 800160a:	40078793          	addi	a5,a5,1024
 800160e:	078a                	slli	a5,a5,0x2
 8001610:	97b6                	add	a5,a5,a3
 8001612:	00e78123          	sb	a4,2(a5)
}
 8001616:	0001                	nop
 8001618:	478d                	li	a5,3
 800161a:	fef42023          	sw	a5,-32(s0)
 800161e:	fc040fa3          	sb	zero,-33(s0)
    return ((uint32_t)((ECLIC->CFG & CLIC_CLICCFG_NLBIT_Msk) >> CLIC_CLICCFG_NLBIT_Pos));
 8001622:	000207b7          	lui	a5,0x20
 8001626:	0007c783          	lbu	a5,0(a5) # 20000 <__HEAP_SIZE+0x1f800>
 800162a:	0ff7f793          	zext.b	a5,a5
 800162e:	8385                	srli	a5,a5,0x1
 8001630:	8bbd                	andi	a5,a5,15
    uint8_t nlbits = __ECLIC_GetCfgNlbits();
 8001632:	fcf40f23          	sb	a5,-34(s0)
    return ((uint32_t)((ECLIC->INFO & CLIC_CLICINFO_CTLBIT_Msk) >> CLIC_CLICINFO_CTLBIT_Pos));
 8001636:	000207b7          	lui	a5,0x20
 800163a:	43dc                	lw	a5,4(a5)
 800163c:	83d5                	srli	a5,a5,0x15
 800163e:	8bbd                	andi	a5,a5,15
    uint8_t intctlbits = (uint8_t)__ECLIC_INTCTLBITS;
 8001640:	fcf40ea3          	sb	a5,-35(s0)
    if (nlbits == 0) {
 8001644:	fde44783          	lbu	a5,-34(s0)
 8001648:	c7f1                	beqz	a5,8001714 <vPortSetupTimerInterrupt+0x384>
    if (nlbits > intctlbits) {
 800164a:	fde44703          	lbu	a4,-34(s0)
 800164e:	fdd44783          	lbu	a5,-35(s0)
 8001652:	00e7f663          	bgeu	a5,a4,800165e <vPortSetupTimerInterrupt+0x2ce>
        nlbits = intctlbits;
 8001656:	fdd44783          	lbu	a5,-35(s0)
 800165a:	fcf40f23          	sb	a5,-34(s0)
    uint8_t maxlvl = ((1 << nlbits) - 1);
 800165e:	fde44783          	lbu	a5,-34(s0)
 8001662:	4705                	li	a4,1
 8001664:	00f717b3          	sll	a5,a4,a5
 8001668:	0ff7f793          	zext.b	a5,a5
 800166c:	17fd                	addi	a5,a5,-1
 800166e:	fcf40e23          	sb	a5,-36(s0)
    if (lvl_abs > maxlvl) {
 8001672:	fdf44703          	lbu	a4,-33(s0)
 8001676:	fdc44783          	lbu	a5,-36(s0)
 800167a:	00e7f663          	bgeu	a5,a4,8001686 <vPortSetupTimerInterrupt+0x2f6>
        lvl_abs = maxlvl;
 800167e:	fdc44783          	lbu	a5,-36(s0)
 8001682:	fcf40fa3          	sb	a5,-33(s0)
    uint8_t lvl = lvl_abs << (ECLIC_MAX_NLBITS - nlbits);
 8001686:	fdf44703          	lbu	a4,-33(s0)
 800168a:	fde44783          	lbu	a5,-34(s0)
 800168e:	46a1                	li	a3,8
 8001690:	40f687b3          	sub	a5,a3,a5
 8001694:	00f717b3          	sll	a5,a4,a5
 8001698:	fcf40da3          	sb	a5,-37(s0)
 800169c:	fe042783          	lw	a5,-32(s0)
 80016a0:	fcf42a23          	sw	a5,-44(s0)
    return (ECLIC->CTRL[IRQn].INTCTRL);
 80016a4:	00020737          	lui	a4,0x20
 80016a8:	fd442783          	lw	a5,-44(s0)
 80016ac:	40078793          	addi	a5,a5,1024 # 20400 <__HEAP_SIZE+0x1fc00>
 80016b0:	078a                	slli	a5,a5,0x2
 80016b2:	97ba                	add	a5,a5,a4
 80016b4:	0037c783          	lbu	a5,3(a5)
 80016b8:	0ff7f793          	zext.b	a5,a5
    uint8_t cur_ctrl = __ECLIC_GetCtrlIRQ(IRQn);
 80016bc:	fcf409a3          	sb	a5,-45(s0)
    cur_ctrl = cur_ctrl << nlbits;
 80016c0:	fd344703          	lbu	a4,-45(s0)
 80016c4:	fde44783          	lbu	a5,-34(s0)
 80016c8:	00f717b3          	sll	a5,a4,a5
 80016cc:	fcf409a3          	sb	a5,-45(s0)
    cur_ctrl = cur_ctrl >> nlbits;
 80016d0:	fd344703          	lbu	a4,-45(s0)
 80016d4:	fde44783          	lbu	a5,-34(s0)
 80016d8:	40f757b3          	sra	a5,a4,a5
 80016dc:	fcf409a3          	sb	a5,-45(s0)
    __ECLIC_SetCtrlIRQ(IRQn, (cur_ctrl | lvl));
 80016e0:	fdb44703          	lbu	a4,-37(s0)
 80016e4:	fd344783          	lbu	a5,-45(s0)
 80016e8:	8fd9                	or	a5,a5,a4
 80016ea:	0ff7f793          	zext.b	a5,a5
 80016ee:	fe042703          	lw	a4,-32(s0)
 80016f2:	fce42623          	sw	a4,-52(s0)
 80016f6:	fcf405a3          	sb	a5,-53(s0)
    ECLIC->CTRL[IRQn].INTCTRL = intctrl;
 80016fa:	00020737          	lui	a4,0x20
 80016fe:	fcc42783          	lw	a5,-52(s0)
 8001702:	40078793          	addi	a5,a5,1024
 8001706:	078a                	slli	a5,a5,0x2
 8001708:	97ba                	add	a5,a5,a4
 800170a:	fcb44703          	lbu	a4,-53(s0)
 800170e:	00e781a3          	sb	a4,3(a5)
}
 8001712:	a011                	j	8001716 <vPortSetupTimerInterrupt+0x386>
        return;
 8001714:	0001                	nop
 8001716:	478d                	li	a5,3
 8001718:	fef42223          	sw	a5,-28(s0)
    ECLIC->CTRL[IRQn].INTIE |= CLIC_INTIE_IE_Msk;
 800171c:	00020737          	lui	a4,0x20
 8001720:	fe442783          	lw	a5,-28(s0)
 8001724:	40078793          	addi	a5,a5,1024
 8001728:	078a                	slli	a5,a5,0x2
 800172a:	97ba                	add	a5,a5,a4
 800172c:	0017c783          	lbu	a5,1(a5)
 8001730:	0ff7f793          	zext.b	a5,a5
 8001734:	000206b7          	lui	a3,0x20
 8001738:	0017e793          	ori	a5,a5,1
 800173c:	0ff7f713          	zext.b	a4,a5
 8001740:	fe442783          	lw	a5,-28(s0)
 8001744:	40078793          	addi	a5,a5,1024
 8001748:	078a                	slli	a5,a5,0x2
 800174a:	97b6                	add	a5,a5,a3
 800174c:	00e780a3          	sb	a4,1(a5)
}
 8001750:	0001                	nop

    /* Set SWI interrupt level to lowest level/priority, SysTimerSW as Vector Interrupt */
    ECLIC_SetShvIRQ(SysTimerSW_IRQn, ECLIC_VECTOR_INTERRUPT);
    ECLIC_SetLevelIRQ(SysTimerSW_IRQn, configKERNEL_INTERRUPT_PRIORITY);
    ECLIC_EnableIRQ(SysTimerSW_IRQn);
}
 8001752:	0001                	nop
 8001754:	50b6                	lw	ra,108(sp)
 8001756:	5426                	lw	s0,104(sp)
 8001758:	6165                	addi	sp,sp,112
 800175a:	8082                	ret

0800175c <vPortValidateInterruptPriority>:
/*-----------------------------------------------------------*/

#if( configASSERT_DEFINED == 1 )

void vPortValidateInterruptPriority(void)
{
 800175c:	7179                	addi	sp,sp,-48
 800175e:	d622                	sw	s0,44(sp)
 8001760:	1800                	addi	s0,sp,48
    uint32_t ulCurrentInterrupt;
    uint8_t ucCurrentPriority;

    /* Obtain the number of the currently executing interrupt. */
    CSR_MCAUSE_Type mcause = (CSR_MCAUSE_Type)__RV_CSR_READ(CSR_MCAUSE);
 8001762:	342027f3          	csrr	a5,mcause
 8001766:	fef42623          	sw	a5,-20(s0)
 800176a:	fec42783          	lw	a5,-20(s0)
 800176e:	fcf42823          	sw	a5,-48(s0)
    /* Make sure current trap type is interrupt */
    configASSERT(mcause.b.interrupt == 1);
 8001772:	fd042703          	lw	a4,-48(s0)
 8001776:	800007b7          	lui	a5,0x80000
 800177a:	8ff9                	and	a5,a5,a4
 800177c:	e395                	bnez	a5,80017a0 <vPortValidateInterruptPriority+0x44>
    ECLIC_SetMth(uxMaxSysCallMTH);
 800177e:	081177b7          	lui	a5,0x8117
 8001782:	7f47c783          	lbu	a5,2036(a5) # 81177f4 <uxMaxSysCallMTH>
 8001786:	fef40323          	sb	a5,-26(s0)
    ECLIC->MTH = mth;
 800178a:	000207b7          	lui	a5,0x20
 800178e:	fe644703          	lbu	a4,-26(s0)
 8001792:	00e785a3          	sb	a4,11(a5) # 2000b <__HEAP_SIZE+0x1f80b>
}
 8001796:	0001                	nop
    __RWMB();
 8001798:	0ff0000f          	fence
}
 800179c:	0001                	nop
 800179e:	a001                	j	800179e <vPortValidateInterruptPriority+0x42>
    if (mcause.b.interrupt) {
 80017a0:	fd042703          	lw	a4,-48(s0)
 80017a4:	800007b7          	lui	a5,0x80000
 80017a8:	8ff9                	and	a5,a5,a4
 80017aa:	cff1                	beqz	a5,8001886 <vPortValidateInterruptPriority+0x12a>
        ulCurrentInterrupt = mcause.b.exccode;
 80017ac:	fd042783          	lw	a5,-48(s0)
 80017b0:	873e                	mv	a4,a5
 80017b2:	6785                	lui	a5,0x1
 80017b4:	17fd                	addi	a5,a5,-1
 80017b6:	8ff9                	and	a5,a5,a4
 80017b8:	0807c7b3          	zext.h	a5,a5
 80017bc:	fef42423          	sw	a5,-24(s0)
        /* Is the interrupt number a user defined interrupt? */
        if (ulCurrentInterrupt >= portFIRST_USER_INTERRUPT_NUMBER) {
 80017c0:	fe842703          	lw	a4,-24(s0)
 80017c4:	47c5                	li	a5,17
 80017c6:	0ce7f063          	bgeu	a5,a4,8001886 <vPortValidateInterruptPriority+0x12a>
 80017ca:	fe842783          	lw	a5,-24(s0)
 80017ce:	fef42023          	sw	a5,-32(s0)
    return ((uint32_t)((ECLIC->CFG & CLIC_CLICCFG_NLBIT_Msk) >> CLIC_CLICCFG_NLBIT_Pos));
 80017d2:	000207b7          	lui	a5,0x20
 80017d6:	0007c783          	lbu	a5,0(a5) # 20000 <__HEAP_SIZE+0x1f800>
 80017da:	0ff7f793          	zext.b	a5,a5
 80017de:	8385                	srli	a5,a5,0x1
 80017e0:	8bbd                	andi	a5,a5,15
 * \sa
 * - \ref ECLIC_SetLevelIRQ
 */
__STATIC_FORCEINLINE uint8_t __ECLIC_GetLevelIRQ(IRQn_Type IRQn)
{
    uint8_t nlbits = __ECLIC_GetCfgNlbits();
 80017e2:	fcf40fa3          	sb	a5,-33(s0)
    return ((uint32_t)((ECLIC->INFO & CLIC_CLICINFO_CTLBIT_Msk) >> CLIC_CLICINFO_CTLBIT_Pos));
 80017e6:	000207b7          	lui	a5,0x20
 80017ea:	43dc                	lw	a5,4(a5)
 80017ec:	83d5                	srli	a5,a5,0x15
 80017ee:	8bbd                	andi	a5,a5,15
    uint8_t intctlbits = (uint8_t)__ECLIC_INTCTLBITS;
 80017f0:	fcf40f23          	sb	a5,-34(s0)

    if (nlbits == 0) {
 80017f4:	fdf44783          	lbu	a5,-33(s0)
 80017f8:	e399                	bnez	a5,80017fe <vPortValidateInterruptPriority+0xa2>
        return 0;
 80017fa:	4781                	li	a5,0
 80017fc:	a891                	j	8001850 <vPortValidateInterruptPriority+0xf4>
    }

    if (nlbits > intctlbits) {
 80017fe:	fdf44703          	lbu	a4,-33(s0)
 8001802:	fde44783          	lbu	a5,-34(s0)
 8001806:	00e7f663          	bgeu	a5,a4,8001812 <vPortValidateInterruptPriority+0xb6>
        nlbits = intctlbits;
 800180a:	fde44783          	lbu	a5,-34(s0)
 800180e:	fcf40fa3          	sb	a5,-33(s0)
 8001812:	fe042783          	lw	a5,-32(s0)
 8001816:	fcf42c23          	sw	a5,-40(s0)
    return (ECLIC->CTRL[IRQn].INTCTRL);
 800181a:	00020737          	lui	a4,0x20
 800181e:	fd842783          	lw	a5,-40(s0)
 8001822:	40078793          	addi	a5,a5,1024 # 20400 <__HEAP_SIZE+0x1fc00>
 8001826:	078a                	slli	a5,a5,0x2
 8001828:	97ba                	add	a5,a5,a4
 800182a:	0037c783          	lbu	a5,3(a5)
 800182e:	0ff7f793          	zext.b	a5,a5
    }
    uint8_t intctrl = __ECLIC_GetCtrlIRQ(IRQn);
 8001832:	fcf40ba3          	sb	a5,-41(s0)
    uint8_t lvl_abs = intctrl >> (ECLIC_MAX_NLBITS - nlbits);
 8001836:	fd744703          	lbu	a4,-41(s0)
 800183a:	fdf44783          	lbu	a5,-33(s0)
 800183e:	46a1                	li	a3,8
 8001840:	40f687b3          	sub	a5,a3,a5
 8001844:	40f757b3          	sra	a5,a4,a5
 8001848:	fcf40b23          	sb	a5,-42(s0)
    return lvl_abs;
 800184c:	fd644783          	lbu	a5,-42(s0)
            /* Look up the interrupt's priority. */
            ucCurrentPriority = __ECLIC_GetLevelIRQ(ulCurrentInterrupt);
 8001850:	fef403a3          	sb	a5,-25(s0)
            FreeRTOS maintains separate thread and ISR API functions to ensure
            interrupt entry is as fast and simple as possible.

            The following links provide detailed information:
            http://www.freertos.org/FAQHelp.html */
            configASSERT(ucCurrentPriority <= ucMaxSysCallPriority);
 8001854:	081197b7          	lui	a5,0x8119
 8001858:	f507c783          	lbu	a5,-176(a5) # 8118f50 <ucMaxSysCallPriority>
 800185c:	fe744703          	lbu	a4,-25(s0)
 8001860:	02e7f363          	bgeu	a5,a4,8001886 <vPortValidateInterruptPriority+0x12a>
    ECLIC_SetMth(uxMaxSysCallMTH);
 8001864:	081177b7          	lui	a5,0x8117
 8001868:	7f47c783          	lbu	a5,2036(a5) # 81177f4 <uxMaxSysCallMTH>
 800186c:	fcf40aa3          	sb	a5,-43(s0)
    ECLIC->MTH = mth;
 8001870:	000207b7          	lui	a5,0x20
 8001874:	fd544703          	lbu	a4,-43(s0)
 8001878:	00e785a3          	sb	a4,11(a5) # 2000b <__HEAP_SIZE+0x1f80b>
}
 800187c:	0001                	nop
    __RWMB();
 800187e:	0ff0000f          	fence
}
 8001882:	0001                	nop
 8001884:	a001                	j	8001884 <vPortValidateInterruptPriority+0x128>
        }
    }
}
 8001886:	0001                	nop
 8001888:	5432                	lw	s0,44(sp)
 800188a:	6145                	addi	sp,sp,48
 800188c:	8082                	ret

0800188e <pvPortMalloc>:
static size_t xBlockAllocatedBit = 0;

/*-----------------------------------------------------------*/

void *pvPortMalloc( size_t xWantedSize )
{
 800188e:	7139                	addi	sp,sp,-64
 8001890:	de06                	sw	ra,60(sp)
 8001892:	dc22                	sw	s0,56(sp)
 8001894:	0080                	addi	s0,sp,64
 8001896:	fca42623          	sw	a0,-52(s0)
BlockLink_t *pxBlock, *pxPreviousBlock, *pxNewBlockLink;
void *pvReturn = NULL;
 800189a:	fe042223          	sw	zero,-28(s0)

	vTaskSuspendAll();
 800189e:	5cd010ef          	jal	ra,800366a <vTaskSuspendAll>
	{
		/* If this is the first call to malloc then the heap will require
		initialisation to setup the list of free blocks. */
		if( pxEnd == NULL )
 80018a2:	081197b7          	lui	a5,0x8119
 80018a6:	f5c7a783          	lw	a5,-164(a5) # 8118f5c <pxEnd>
 80018aa:	e391                	bnez	a5,80018ae <pvPortMalloc+0x20>
		{
			prvHeapInit();
 80018ac:	2e11                	jal	8001bc0 <prvHeapInit>

		/* Check the requested block size is not so large that the top bit is
		set.  The top bit of the block size member of the BlockLink_t structure
		is used to determine who owns the block - the application or the
		kernel, so it must be free. */
		if( ( xWantedSize & xBlockAllocatedBit ) == 0 )
 80018ae:	081197b7          	lui	a5,0x8119
 80018b2:	f707a703          	lw	a4,-144(a5) # 8118f70 <xBlockAllocatedBit>
 80018b6:	fcc42783          	lw	a5,-52(s0)
 80018ba:	8ff9                	and	a5,a5,a4
 80018bc:	1a079b63          	bnez	a5,8001a72 <pvPortMalloc+0x1e4>
		{
			/* The wanted size is increased so it can contain a BlockLink_t
			structure in addition to the requested amount of bytes. */
			if( xWantedSize > 0 )
 80018c0:	fcc42783          	lw	a5,-52(s0)
 80018c4:	c7b1                	beqz	a5,8001910 <pvPortMalloc+0x82>
			{
				xWantedSize += xHeapStructSize;
 80018c6:	47a1                	li	a5,8
 80018c8:	fcc42703          	lw	a4,-52(s0)
 80018cc:	97ba                	add	a5,a5,a4
 80018ce:	fcf42623          	sw	a5,-52(s0)

				/* Ensure that blocks are always aligned to the required number
				of bytes. */
				if( ( xWantedSize & portBYTE_ALIGNMENT_MASK ) != 0x00 )
 80018d2:	fcc42783          	lw	a5,-52(s0)
 80018d6:	8b9d                	andi	a5,a5,7
 80018d8:	cf85                	beqz	a5,8001910 <pvPortMalloc+0x82>
				{
					/* Byte alignment required. */
					xWantedSize += ( portBYTE_ALIGNMENT - ( xWantedSize & portBYTE_ALIGNMENT_MASK ) );
 80018da:	fcc42783          	lw	a5,-52(s0)
 80018de:	9be1                	andi	a5,a5,-8
 80018e0:	07a1                	addi	a5,a5,8
 80018e2:	fcf42623          	sw	a5,-52(s0)
					configASSERT( ( xWantedSize & portBYTE_ALIGNMENT_MASK ) == 0 );
 80018e6:	fcc42783          	lw	a5,-52(s0)
 80018ea:	8b9d                	andi	a5,a5,7
 80018ec:	c395                	beqz	a5,8001910 <pvPortMalloc+0x82>
    ECLIC_SetMth(uxMaxSysCallMTH);
 80018ee:	081177b7          	lui	a5,0x8117
 80018f2:	7f47c783          	lbu	a5,2036(a5) # 81177f4 <uxMaxSysCallMTH>
 80018f6:	fcf40fa3          	sb	a5,-33(s0)
    ECLIC->MTH = mth;
 80018fa:	000207b7          	lui	a5,0x20
 80018fe:	fdf44703          	lbu	a4,-33(s0)
 8001902:	00e785a3          	sb	a4,11(a5) # 2000b <__HEAP_SIZE+0x1f80b>
}
 8001906:	0001                	nop
    __RWMB();
 8001908:	0ff0000f          	fence
}
 800190c:	0001                	nop
 800190e:	a001                	j	800190e <pvPortMalloc+0x80>
			else
			{
				mtCOVERAGE_TEST_MARKER();
			}

			if( ( xWantedSize > 0 ) && ( xWantedSize <= xFreeBytesRemaining ) )
 8001910:	fcc42783          	lw	a5,-52(s0)
 8001914:	14078f63          	beqz	a5,8001a72 <pvPortMalloc+0x1e4>
 8001918:	081197b7          	lui	a5,0x8119
 800191c:	f607a783          	lw	a5,-160(a5) # 8118f60 <xFreeBytesRemaining>
 8001920:	fcc42703          	lw	a4,-52(s0)
 8001924:	14e7e763          	bltu	a5,a4,8001a72 <pvPortMalloc+0x1e4>
			{
				/* Traverse the list from the start	(lowest address) block until
				one	of adequate size is found. */
				pxPreviousBlock = &xStart;
 8001928:	081197b7          	lui	a5,0x8119
 800192c:	f5478793          	addi	a5,a5,-172 # 8118f54 <xStart>
 8001930:	fef42423          	sw	a5,-24(s0)
				pxBlock = xStart.pxNextFreeBlock;
 8001934:	081197b7          	lui	a5,0x8119
 8001938:	f5478793          	addi	a5,a5,-172 # 8118f54 <xStart>
 800193c:	439c                	lw	a5,0(a5)
 800193e:	fef42623          	sw	a5,-20(s0)
				while( ( pxBlock->xBlockSize < xWantedSize ) && ( pxBlock->pxNextFreeBlock != NULL ) )
 8001942:	a811                	j	8001956 <pvPortMalloc+0xc8>
				{
					pxPreviousBlock = pxBlock;
 8001944:	fec42783          	lw	a5,-20(s0)
 8001948:	fef42423          	sw	a5,-24(s0)
					pxBlock = pxBlock->pxNextFreeBlock;
 800194c:	fec42783          	lw	a5,-20(s0)
 8001950:	439c                	lw	a5,0(a5)
 8001952:	fef42623          	sw	a5,-20(s0)
				while( ( pxBlock->xBlockSize < xWantedSize ) && ( pxBlock->pxNextFreeBlock != NULL ) )
 8001956:	fec42783          	lw	a5,-20(s0)
 800195a:	43dc                	lw	a5,4(a5)
 800195c:	fcc42703          	lw	a4,-52(s0)
 8001960:	00e7f663          	bgeu	a5,a4,800196c <pvPortMalloc+0xde>
 8001964:	fec42783          	lw	a5,-20(s0)
 8001968:	439c                	lw	a5,0(a5)
 800196a:	ffe9                	bnez	a5,8001944 <pvPortMalloc+0xb6>
				}

				/* If the end marker was reached then a block of adequate size
				was	not found. */
				if( pxBlock != pxEnd )
 800196c:	081197b7          	lui	a5,0x8119
 8001970:	f5c7a783          	lw	a5,-164(a5) # 8118f5c <pxEnd>
 8001974:	fec42703          	lw	a4,-20(s0)
 8001978:	0ef70d63          	beq	a4,a5,8001a72 <pvPortMalloc+0x1e4>
				{
					/* Return the memory space pointed to - jumping over the
					BlockLink_t structure at its start. */
					pvReturn = ( void * ) ( ( ( uint8_t * ) pxPreviousBlock->pxNextFreeBlock ) + xHeapStructSize );
 800197c:	fe842783          	lw	a5,-24(s0)
 8001980:	4398                	lw	a4,0(a5)
 8001982:	47a1                	li	a5,8
 8001984:	97ba                	add	a5,a5,a4
 8001986:	fef42223          	sw	a5,-28(s0)

					/* This block is being returned for use so must be taken out
					of the list of free blocks. */
					pxPreviousBlock->pxNextFreeBlock = pxBlock->pxNextFreeBlock;
 800198a:	fec42783          	lw	a5,-20(s0)
 800198e:	4398                	lw	a4,0(a5)
 8001990:	fe842783          	lw	a5,-24(s0)
 8001994:	c398                	sw	a4,0(a5)

					/* If the block is larger than required it can be split into
					two. */
					if( ( pxBlock->xBlockSize - xWantedSize ) > heapMINIMUM_BLOCK_SIZE )
 8001996:	fec42783          	lw	a5,-20(s0)
 800199a:	43d8                	lw	a4,4(a5)
 800199c:	fcc42783          	lw	a5,-52(s0)
 80019a0:	8f1d                	sub	a4,a4,a5
 80019a2:	47a1                	li	a5,8
 80019a4:	0786                	slli	a5,a5,0x1
 80019a6:	04e7ff63          	bgeu	a5,a4,8001a04 <pvPortMalloc+0x176>
					{
						/* This block is to be split into two.  Create a new
						block following the number of bytes requested. The void
						cast is used to prevent byte alignment warnings from the
						compiler. */
						pxNewBlockLink = ( void * ) ( ( ( uint8_t * ) pxBlock ) + xWantedSize );
 80019aa:	fec42703          	lw	a4,-20(s0)
 80019ae:	fcc42783          	lw	a5,-52(s0)
 80019b2:	97ba                	add	a5,a5,a4
 80019b4:	fef42023          	sw	a5,-32(s0)
						configASSERT( ( ( ( size_t ) pxNewBlockLink ) & portBYTE_ALIGNMENT_MASK ) == 0 );
 80019b8:	fe042783          	lw	a5,-32(s0)
 80019bc:	8b9d                	andi	a5,a5,7
 80019be:	c395                	beqz	a5,80019e2 <pvPortMalloc+0x154>
    ECLIC_SetMth(uxMaxSysCallMTH);
 80019c0:	081177b7          	lui	a5,0x8117
 80019c4:	7f47c783          	lbu	a5,2036(a5) # 81177f4 <uxMaxSysCallMTH>
 80019c8:	fcf40f23          	sb	a5,-34(s0)
    ECLIC->MTH = mth;
 80019cc:	000207b7          	lui	a5,0x20
 80019d0:	fde44703          	lbu	a4,-34(s0)
 80019d4:	00e785a3          	sb	a4,11(a5) # 2000b <__HEAP_SIZE+0x1f80b>
}
 80019d8:	0001                	nop
    __RWMB();
 80019da:	0ff0000f          	fence
}
 80019de:	0001                	nop
 80019e0:	a001                	j	80019e0 <pvPortMalloc+0x152>

						/* Calculate the sizes of two blocks split from the
						single block. */
						pxNewBlockLink->xBlockSize = pxBlock->xBlockSize - xWantedSize;
 80019e2:	fec42783          	lw	a5,-20(s0)
 80019e6:	43d8                	lw	a4,4(a5)
 80019e8:	fcc42783          	lw	a5,-52(s0)
 80019ec:	8f1d                	sub	a4,a4,a5
 80019ee:	fe042783          	lw	a5,-32(s0)
 80019f2:	c3d8                	sw	a4,4(a5)
						pxBlock->xBlockSize = xWantedSize;
 80019f4:	fec42783          	lw	a5,-20(s0)
 80019f8:	fcc42703          	lw	a4,-52(s0)
 80019fc:	c3d8                	sw	a4,4(a5)

						/* Insert the new block into the list of free blocks. */
						prvInsertBlockIntoFreeList( pxNewBlockLink );
 80019fe:	fe042503          	lw	a0,-32(s0)
 8001a02:	2cc1                	jal	8001cd2 <prvInsertBlockIntoFreeList>
					else
					{
						mtCOVERAGE_TEST_MARKER();
					}

					xFreeBytesRemaining -= pxBlock->xBlockSize;
 8001a04:	081197b7          	lui	a5,0x8119
 8001a08:	f607a703          	lw	a4,-160(a5) # 8118f60 <xFreeBytesRemaining>
 8001a0c:	fec42783          	lw	a5,-20(s0)
 8001a10:	43dc                	lw	a5,4(a5)
 8001a12:	8f1d                	sub	a4,a4,a5
 8001a14:	081197b7          	lui	a5,0x8119
 8001a18:	f6e7a023          	sw	a4,-160(a5) # 8118f60 <xFreeBytesRemaining>

					if( xFreeBytesRemaining < xMinimumEverFreeBytesRemaining )
 8001a1c:	081197b7          	lui	a5,0x8119
 8001a20:	f607a703          	lw	a4,-160(a5) # 8118f60 <xFreeBytesRemaining>
 8001a24:	081197b7          	lui	a5,0x8119
 8001a28:	f647a783          	lw	a5,-156(a5) # 8118f64 <xMinimumEverFreeBytesRemaining>
 8001a2c:	00f77a63          	bgeu	a4,a5,8001a40 <pvPortMalloc+0x1b2>
					{
						xMinimumEverFreeBytesRemaining = xFreeBytesRemaining;
 8001a30:	081197b7          	lui	a5,0x8119
 8001a34:	f607a703          	lw	a4,-160(a5) # 8118f60 <xFreeBytesRemaining>
 8001a38:	081197b7          	lui	a5,0x8119
 8001a3c:	f6e7a223          	sw	a4,-156(a5) # 8118f64 <xMinimumEverFreeBytesRemaining>
						mtCOVERAGE_TEST_MARKER();
					}

					/* The block is being returned - it is allocated and owned
					by the application and has no "next" block. */
					pxBlock->xBlockSize |= xBlockAllocatedBit;
 8001a40:	fec42783          	lw	a5,-20(s0)
 8001a44:	43d8                	lw	a4,4(a5)
 8001a46:	081197b7          	lui	a5,0x8119
 8001a4a:	f707a783          	lw	a5,-144(a5) # 8118f70 <xBlockAllocatedBit>
 8001a4e:	8f5d                	or	a4,a4,a5
 8001a50:	fec42783          	lw	a5,-20(s0)
 8001a54:	c3d8                	sw	a4,4(a5)
					pxBlock->pxNextFreeBlock = NULL;
 8001a56:	fec42783          	lw	a5,-20(s0)
 8001a5a:	0007a023          	sw	zero,0(a5)
					xNumberOfSuccessfulAllocations++;
 8001a5e:	081197b7          	lui	a5,0x8119
 8001a62:	f687a783          	lw	a5,-152(a5) # 8118f68 <xNumberOfSuccessfulAllocations>
 8001a66:	00178713          	addi	a4,a5,1
 8001a6a:	081197b7          	lui	a5,0x8119
 8001a6e:	f6e7a423          	sw	a4,-152(a5) # 8118f68 <xNumberOfSuccessfulAllocations>
			mtCOVERAGE_TEST_MARKER();
		}

		traceMALLOC( pvReturn, xWantedSize );
	}
	( void ) xTaskResumeAll();
 8001a72:	41b010ef          	jal	ra,800368c <xTaskResumeAll>

	#if( configUSE_MALLOC_FAILED_HOOK == 1 )
	{
		if( pvReturn == NULL )
 8001a76:	fe442783          	lw	a5,-28(s0)
 8001a7a:	e399                	bnez	a5,8001a80 <pvPortMalloc+0x1f2>
		{
			extern void vApplicationMallocFailedHook( void );
			vApplicationMallocFailedHook();
 8001a7c:	4ff080ef          	jal	ra,800a77a <vApplicationMallocFailedHook>
			mtCOVERAGE_TEST_MARKER();
		}
	}
	#endif

	configASSERT( ( ( ( size_t ) pvReturn ) & ( size_t ) portBYTE_ALIGNMENT_MASK ) == 0 );
 8001a80:	fe442783          	lw	a5,-28(s0)
 8001a84:	8b9d                	andi	a5,a5,7
 8001a86:	c395                	beqz	a5,8001aaa <pvPortMalloc+0x21c>
    ECLIC_SetMth(uxMaxSysCallMTH);
 8001a88:	081177b7          	lui	a5,0x8117
 8001a8c:	7f47c783          	lbu	a5,2036(a5) # 81177f4 <uxMaxSysCallMTH>
 8001a90:	fcf40ea3          	sb	a5,-35(s0)
    ECLIC->MTH = mth;
 8001a94:	000207b7          	lui	a5,0x20
 8001a98:	fdd44703          	lbu	a4,-35(s0)
 8001a9c:	00e785a3          	sb	a4,11(a5) # 2000b <__HEAP_SIZE+0x1f80b>
}
 8001aa0:	0001                	nop
    __RWMB();
 8001aa2:	0ff0000f          	fence
}
 8001aa6:	0001                	nop
 8001aa8:	a001                	j	8001aa8 <pvPortMalloc+0x21a>
	return pvReturn;
 8001aaa:	fe442783          	lw	a5,-28(s0)
}
 8001aae:	853e                	mv	a0,a5
 8001ab0:	50f2                	lw	ra,60(sp)
 8001ab2:	5462                	lw	s0,56(sp)
 8001ab4:	6121                	addi	sp,sp,64
 8001ab6:	8082                	ret

08001ab8 <vPortFree>:
/*-----------------------------------------------------------*/

void vPortFree( void *pv )
{
 8001ab8:	7179                	addi	sp,sp,-48
 8001aba:	d606                	sw	ra,44(sp)
 8001abc:	d422                	sw	s0,40(sp)
 8001abe:	1800                	addi	s0,sp,48
 8001ac0:	fca42e23          	sw	a0,-36(s0)
uint8_t *puc = ( uint8_t * ) pv;
 8001ac4:	fdc42783          	lw	a5,-36(s0)
 8001ac8:	fef42623          	sw	a5,-20(s0)
BlockLink_t *pxLink;

	if( pv != NULL )
 8001acc:	fdc42783          	lw	a5,-36(s0)
 8001ad0:	c3fd                	beqz	a5,8001bb6 <vPortFree+0xfe>
	{
		/* The memory being freed will have an BlockLink_t structure immediately
		before it. */
		puc -= xHeapStructSize;
 8001ad2:	47a1                	li	a5,8
 8001ad4:	40f007b3          	neg	a5,a5
 8001ad8:	fec42703          	lw	a4,-20(s0)
 8001adc:	97ba                	add	a5,a5,a4
 8001ade:	fef42623          	sw	a5,-20(s0)

		/* This casting is to keep the compiler from issuing warnings. */
		pxLink = ( void * ) puc;
 8001ae2:	fec42783          	lw	a5,-20(s0)
 8001ae6:	fef42423          	sw	a5,-24(s0)

		/* Check the block is actually allocated. */
		configASSERT( ( pxLink->xBlockSize & xBlockAllocatedBit ) != 0 );
 8001aea:	fe842783          	lw	a5,-24(s0)
 8001aee:	43d8                	lw	a4,4(a5)
 8001af0:	081197b7          	lui	a5,0x8119
 8001af4:	f707a783          	lw	a5,-144(a5) # 8118f70 <xBlockAllocatedBit>
 8001af8:	8ff9                	and	a5,a5,a4
 8001afa:	e395                	bnez	a5,8001b1e <vPortFree+0x66>
    ECLIC_SetMth(uxMaxSysCallMTH);
 8001afc:	081177b7          	lui	a5,0x8117
 8001b00:	7f47c783          	lbu	a5,2036(a5) # 81177f4 <uxMaxSysCallMTH>
 8001b04:	fef403a3          	sb	a5,-25(s0)
    ECLIC->MTH = mth;
 8001b08:	000207b7          	lui	a5,0x20
 8001b0c:	fe744703          	lbu	a4,-25(s0)
 8001b10:	00e785a3          	sb	a4,11(a5) # 2000b <__HEAP_SIZE+0x1f80b>
}
 8001b14:	0001                	nop
    __RWMB();
 8001b16:	0ff0000f          	fence
}
 8001b1a:	0001                	nop
 8001b1c:	a001                	j	8001b1c <vPortFree+0x64>
		configASSERT( pxLink->pxNextFreeBlock == NULL );
 8001b1e:	fe842783          	lw	a5,-24(s0)
 8001b22:	439c                	lw	a5,0(a5)
 8001b24:	c395                	beqz	a5,8001b48 <vPortFree+0x90>
    ECLIC_SetMth(uxMaxSysCallMTH);
 8001b26:	081177b7          	lui	a5,0x8117
 8001b2a:	7f47c783          	lbu	a5,2036(a5) # 81177f4 <uxMaxSysCallMTH>
 8001b2e:	fef40323          	sb	a5,-26(s0)
    ECLIC->MTH = mth;
 8001b32:	000207b7          	lui	a5,0x20
 8001b36:	fe644703          	lbu	a4,-26(s0)
 8001b3a:	00e785a3          	sb	a4,11(a5) # 2000b <__HEAP_SIZE+0x1f80b>
}
 8001b3e:	0001                	nop
    __RWMB();
 8001b40:	0ff0000f          	fence
}
 8001b44:	0001                	nop
 8001b46:	a001                	j	8001b46 <vPortFree+0x8e>

		if( ( pxLink->xBlockSize & xBlockAllocatedBit ) != 0 )
 8001b48:	fe842783          	lw	a5,-24(s0)
 8001b4c:	43d8                	lw	a4,4(a5)
 8001b4e:	081197b7          	lui	a5,0x8119
 8001b52:	f707a783          	lw	a5,-144(a5) # 8118f70 <xBlockAllocatedBit>
 8001b56:	8ff9                	and	a5,a5,a4
 8001b58:	cfb9                	beqz	a5,8001bb6 <vPortFree+0xfe>
		{
			if( pxLink->pxNextFreeBlock == NULL )
 8001b5a:	fe842783          	lw	a5,-24(s0)
 8001b5e:	439c                	lw	a5,0(a5)
 8001b60:	ebb9                	bnez	a5,8001bb6 <vPortFree+0xfe>
			{
				/* The block is being returned to the heap - it is no longer
				allocated. */
				pxLink->xBlockSize &= ~xBlockAllocatedBit;
 8001b62:	fe842783          	lw	a5,-24(s0)
 8001b66:	43d8                	lw	a4,4(a5)
 8001b68:	081197b7          	lui	a5,0x8119
 8001b6c:	f707a783          	lw	a5,-144(a5) # 8118f70 <xBlockAllocatedBit>
 8001b70:	fff7c793          	not	a5,a5
 8001b74:	8f7d                	and	a4,a4,a5
 8001b76:	fe842783          	lw	a5,-24(s0)
 8001b7a:	c3d8                	sw	a4,4(a5)

				vTaskSuspendAll();
 8001b7c:	2ef010ef          	jal	ra,800366a <vTaskSuspendAll>
				{
					/* Add this block to the list of free blocks. */
					xFreeBytesRemaining += pxLink->xBlockSize;
 8001b80:	fe842783          	lw	a5,-24(s0)
 8001b84:	43d8                	lw	a4,4(a5)
 8001b86:	081197b7          	lui	a5,0x8119
 8001b8a:	f607a783          	lw	a5,-160(a5) # 8118f60 <xFreeBytesRemaining>
 8001b8e:	973e                	add	a4,a4,a5
 8001b90:	081197b7          	lui	a5,0x8119
 8001b94:	f6e7a023          	sw	a4,-160(a5) # 8118f60 <xFreeBytesRemaining>
					traceFREE( pv, pxLink->xBlockSize );
					prvInsertBlockIntoFreeList( ( ( BlockLink_t * ) pxLink ) );
 8001b98:	fe842503          	lw	a0,-24(s0)
 8001b9c:	2a1d                	jal	8001cd2 <prvInsertBlockIntoFreeList>
					xNumberOfSuccessfulFrees++;
 8001b9e:	081197b7          	lui	a5,0x8119
 8001ba2:	f6c7a783          	lw	a5,-148(a5) # 8118f6c <xNumberOfSuccessfulFrees>
 8001ba6:	00178713          	addi	a4,a5,1
 8001baa:	081197b7          	lui	a5,0x8119
 8001bae:	f6e7a623          	sw	a4,-148(a5) # 8118f6c <xNumberOfSuccessfulFrees>
				}
				( void ) xTaskResumeAll();
 8001bb2:	2db010ef          	jal	ra,800368c <xTaskResumeAll>
		else
		{
			mtCOVERAGE_TEST_MARKER();
		}
	}
}
 8001bb6:	0001                	nop
 8001bb8:	50b2                	lw	ra,44(sp)
 8001bba:	5422                	lw	s0,40(sp)
 8001bbc:	6145                	addi	sp,sp,48
 8001bbe:	8082                	ret

08001bc0 <prvHeapInit>:
	/* This just exists to keep the linker quiet. */
}
/*-----------------------------------------------------------*/

static void prvHeapInit( void )
{
 8001bc0:	1101                	addi	sp,sp,-32
 8001bc2:	ce22                	sw	s0,28(sp)
 8001bc4:	1000                	addi	s0,sp,32
BlockLink_t *pxFirstFreeBlock;
uint8_t *pucAlignedHeap;
size_t uxAddress;
size_t xTotalHeapSize = configTOTAL_HEAP_SIZE;
 8001bc6:	67a1                	lui	a5,0x8
 8001bc8:	80078793          	addi	a5,a5,-2048 # 7800 <__HEAP_SIZE+0x7000>
 8001bcc:	fef42423          	sw	a5,-24(s0)

	/* Ensure the heap starts on a correctly aligned boundary. */
	uxAddress = ( size_t ) ucHeap;
 8001bd0:	081197b7          	lui	a5,0x8119
 8001bd4:	0e078793          	addi	a5,a5,224 # 81190e0 <ucHeap>
 8001bd8:	fef42623          	sw	a5,-20(s0)

	if( ( uxAddress & portBYTE_ALIGNMENT_MASK ) != 0 )
 8001bdc:	fec42783          	lw	a5,-20(s0)
 8001be0:	8b9d                	andi	a5,a5,7
 8001be2:	c79d                	beqz	a5,8001c10 <prvHeapInit+0x50>
	{
		uxAddress += ( portBYTE_ALIGNMENT - 1 );
 8001be4:	fec42783          	lw	a5,-20(s0)
 8001be8:	079d                	addi	a5,a5,7
 8001bea:	fef42623          	sw	a5,-20(s0)
		uxAddress &= ~( ( size_t ) portBYTE_ALIGNMENT_MASK );
 8001bee:	fec42783          	lw	a5,-20(s0)
 8001bf2:	9be1                	andi	a5,a5,-8
 8001bf4:	fef42623          	sw	a5,-20(s0)
		xTotalHeapSize -= uxAddress - ( size_t ) ucHeap;
 8001bf8:	fe842703          	lw	a4,-24(s0)
 8001bfc:	fec42783          	lw	a5,-20(s0)
 8001c00:	8f1d                	sub	a4,a4,a5
 8001c02:	081197b7          	lui	a5,0x8119
 8001c06:	0e078793          	addi	a5,a5,224 # 81190e0 <ucHeap>
 8001c0a:	97ba                	add	a5,a5,a4
 8001c0c:	fef42423          	sw	a5,-24(s0)
	}

	pucAlignedHeap = ( uint8_t * ) uxAddress;
 8001c10:	fec42783          	lw	a5,-20(s0)
 8001c14:	fef42223          	sw	a5,-28(s0)

	/* xStart is used to hold a pointer to the first item in the list of free
	blocks.  The void cast is used to prevent compiler warnings. */
	xStart.pxNextFreeBlock = ( void * ) pucAlignedHeap;
 8001c18:	081197b7          	lui	a5,0x8119
 8001c1c:	f5478793          	addi	a5,a5,-172 # 8118f54 <xStart>
 8001c20:	fe442703          	lw	a4,-28(s0)
 8001c24:	c398                	sw	a4,0(a5)
	xStart.xBlockSize = ( size_t ) 0;
 8001c26:	081197b7          	lui	a5,0x8119
 8001c2a:	f5478793          	addi	a5,a5,-172 # 8118f54 <xStart>
 8001c2e:	0007a223          	sw	zero,4(a5)

	/* pxEnd is used to mark the end of the list of free blocks and is inserted
	at the end of the heap space. */
	uxAddress = ( ( size_t ) pucAlignedHeap ) + xTotalHeapSize;
 8001c32:	fe442783          	lw	a5,-28(s0)
 8001c36:	fe842703          	lw	a4,-24(s0)
 8001c3a:	97ba                	add	a5,a5,a4
 8001c3c:	fef42623          	sw	a5,-20(s0)
	uxAddress -= xHeapStructSize;
 8001c40:	47a1                	li	a5,8
 8001c42:	fec42703          	lw	a4,-20(s0)
 8001c46:	40f707b3          	sub	a5,a4,a5
 8001c4a:	fef42623          	sw	a5,-20(s0)
	uxAddress &= ~( ( size_t ) portBYTE_ALIGNMENT_MASK );
 8001c4e:	fec42783          	lw	a5,-20(s0)
 8001c52:	9be1                	andi	a5,a5,-8
 8001c54:	fef42623          	sw	a5,-20(s0)
	pxEnd = ( void * ) uxAddress;
 8001c58:	fec42703          	lw	a4,-20(s0)
 8001c5c:	081197b7          	lui	a5,0x8119
 8001c60:	f4e7ae23          	sw	a4,-164(a5) # 8118f5c <pxEnd>
	pxEnd->xBlockSize = 0;
 8001c64:	081197b7          	lui	a5,0x8119
 8001c68:	f5c7a783          	lw	a5,-164(a5) # 8118f5c <pxEnd>
 8001c6c:	0007a223          	sw	zero,4(a5)
	pxEnd->pxNextFreeBlock = NULL;
 8001c70:	081197b7          	lui	a5,0x8119
 8001c74:	f5c7a783          	lw	a5,-164(a5) # 8118f5c <pxEnd>
 8001c78:	0007a023          	sw	zero,0(a5)

	/* To start with there is a single free block that is sized to take up the
	entire heap space, minus the space taken by pxEnd. */
	pxFirstFreeBlock = ( void * ) pucAlignedHeap;
 8001c7c:	fe442783          	lw	a5,-28(s0)
 8001c80:	fef42023          	sw	a5,-32(s0)
	pxFirstFreeBlock->xBlockSize = uxAddress - ( size_t ) pxFirstFreeBlock;
 8001c84:	fe042783          	lw	a5,-32(s0)
 8001c88:	fec42703          	lw	a4,-20(s0)
 8001c8c:	8f1d                	sub	a4,a4,a5
 8001c8e:	fe042783          	lw	a5,-32(s0)
 8001c92:	c3d8                	sw	a4,4(a5)
	pxFirstFreeBlock->pxNextFreeBlock = pxEnd;
 8001c94:	081197b7          	lui	a5,0x8119
 8001c98:	f5c7a703          	lw	a4,-164(a5) # 8118f5c <pxEnd>
 8001c9c:	fe042783          	lw	a5,-32(s0)
 8001ca0:	c398                	sw	a4,0(a5)

	/* Only one block exists - and it covers the entire usable heap space. */
	xMinimumEverFreeBytesRemaining = pxFirstFreeBlock->xBlockSize;
 8001ca2:	fe042783          	lw	a5,-32(s0)
 8001ca6:	43d8                	lw	a4,4(a5)
 8001ca8:	081197b7          	lui	a5,0x8119
 8001cac:	f6e7a223          	sw	a4,-156(a5) # 8118f64 <xMinimumEverFreeBytesRemaining>
	xFreeBytesRemaining = pxFirstFreeBlock->xBlockSize;
 8001cb0:	fe042783          	lw	a5,-32(s0)
 8001cb4:	43d8                	lw	a4,4(a5)
 8001cb6:	081197b7          	lui	a5,0x8119
 8001cba:	f6e7a023          	sw	a4,-160(a5) # 8118f60 <xFreeBytesRemaining>

	/* Work out the position of the top bit in a size_t variable. */
	xBlockAllocatedBit = ( ( size_t ) 1 ) << ( ( sizeof( size_t ) * heapBITS_PER_BYTE ) - 1 );
 8001cbe:	081197b7          	lui	a5,0x8119
 8001cc2:	80000737          	lui	a4,0x80000
 8001cc6:	f6e7a823          	sw	a4,-144(a5) # 8118f70 <xBlockAllocatedBit>
}
 8001cca:	0001                	nop
 8001ccc:	4472                	lw	s0,28(sp)
 8001cce:	6105                	addi	sp,sp,32
 8001cd0:	8082                	ret

08001cd2 <prvInsertBlockIntoFreeList>:
/*-----------------------------------------------------------*/

static void prvInsertBlockIntoFreeList( BlockLink_t *pxBlockToInsert )
{
 8001cd2:	7179                	addi	sp,sp,-48
 8001cd4:	d622                	sw	s0,44(sp)
 8001cd6:	1800                	addi	s0,sp,48
 8001cd8:	fca42e23          	sw	a0,-36(s0)
BlockLink_t *pxIterator;
uint8_t *puc;

	/* Iterate through the list until a block is found that has a higher address
	than the block being inserted. */
	for( pxIterator = &xStart; pxIterator->pxNextFreeBlock < pxBlockToInsert; pxIterator = pxIterator->pxNextFreeBlock )
 8001cdc:	081197b7          	lui	a5,0x8119
 8001ce0:	f5478793          	addi	a5,a5,-172 # 8118f54 <xStart>
 8001ce4:	fef42623          	sw	a5,-20(s0)
 8001ce8:	a031                	j	8001cf4 <prvInsertBlockIntoFreeList+0x22>
 8001cea:	fec42783          	lw	a5,-20(s0)
 8001cee:	439c                	lw	a5,0(a5)
 8001cf0:	fef42623          	sw	a5,-20(s0)
 8001cf4:	fec42783          	lw	a5,-20(s0)
 8001cf8:	439c                	lw	a5,0(a5)
 8001cfa:	fdc42703          	lw	a4,-36(s0)
 8001cfe:	fee7e6e3          	bltu	a5,a4,8001cea <prvInsertBlockIntoFreeList+0x18>
		/* Nothing to do here, just iterate to the right position. */
	}

	/* Do the block being inserted, and the block it is being inserted after
	make a contiguous block of memory? */
	puc = ( uint8_t * ) pxIterator;
 8001d02:	fec42783          	lw	a5,-20(s0)
 8001d06:	fef42423          	sw	a5,-24(s0)
	if( ( puc + pxIterator->xBlockSize ) == ( uint8_t * ) pxBlockToInsert )
 8001d0a:	fec42783          	lw	a5,-20(s0)
 8001d0e:	43dc                	lw	a5,4(a5)
 8001d10:	fe842703          	lw	a4,-24(s0)
 8001d14:	97ba                	add	a5,a5,a4
 8001d16:	fdc42703          	lw	a4,-36(s0)
 8001d1a:	02f71063          	bne	a4,a5,8001d3a <prvInsertBlockIntoFreeList+0x68>
	{
		pxIterator->xBlockSize += pxBlockToInsert->xBlockSize;
 8001d1e:	fec42783          	lw	a5,-20(s0)
 8001d22:	43d8                	lw	a4,4(a5)
 8001d24:	fdc42783          	lw	a5,-36(s0)
 8001d28:	43dc                	lw	a5,4(a5)
 8001d2a:	973e                	add	a4,a4,a5
 8001d2c:	fec42783          	lw	a5,-20(s0)
 8001d30:	c3d8                	sw	a4,4(a5)
		pxBlockToInsert = pxIterator;
 8001d32:	fec42783          	lw	a5,-20(s0)
 8001d36:	fcf42e23          	sw	a5,-36(s0)
		mtCOVERAGE_TEST_MARKER();
	}

	/* Do the block being inserted, and the block it is being inserted before
	make a contiguous block of memory? */
	puc = ( uint8_t * ) pxBlockToInsert;
 8001d3a:	fdc42783          	lw	a5,-36(s0)
 8001d3e:	fef42423          	sw	a5,-24(s0)
	if( ( puc + pxBlockToInsert->xBlockSize ) == ( uint8_t * ) pxIterator->pxNextFreeBlock )
 8001d42:	fdc42783          	lw	a5,-36(s0)
 8001d46:	43dc                	lw	a5,4(a5)
 8001d48:	fe842703          	lw	a4,-24(s0)
 8001d4c:	973e                	add	a4,a4,a5
 8001d4e:	fec42783          	lw	a5,-20(s0)
 8001d52:	439c                	lw	a5,0(a5)
 8001d54:	04f71663          	bne	a4,a5,8001da0 <prvInsertBlockIntoFreeList+0xce>
	{
		if( pxIterator->pxNextFreeBlock != pxEnd )
 8001d58:	fec42783          	lw	a5,-20(s0)
 8001d5c:	4398                	lw	a4,0(a5)
 8001d5e:	081197b7          	lui	a5,0x8119
 8001d62:	f5c7a783          	lw	a5,-164(a5) # 8118f5c <pxEnd>
 8001d66:	02f70563          	beq	a4,a5,8001d90 <prvInsertBlockIntoFreeList+0xbe>
		{
			/* Form one big block from the two blocks. */
			pxBlockToInsert->xBlockSize += pxIterator->pxNextFreeBlock->xBlockSize;
 8001d6a:	fdc42783          	lw	a5,-36(s0)
 8001d6e:	43d8                	lw	a4,4(a5)
 8001d70:	fec42783          	lw	a5,-20(s0)
 8001d74:	439c                	lw	a5,0(a5)
 8001d76:	43dc                	lw	a5,4(a5)
 8001d78:	973e                	add	a4,a4,a5
 8001d7a:	fdc42783          	lw	a5,-36(s0)
 8001d7e:	c3d8                	sw	a4,4(a5)
			pxBlockToInsert->pxNextFreeBlock = pxIterator->pxNextFreeBlock->pxNextFreeBlock;
 8001d80:	fec42783          	lw	a5,-20(s0)
 8001d84:	439c                	lw	a5,0(a5)
 8001d86:	4398                	lw	a4,0(a5)
 8001d88:	fdc42783          	lw	a5,-36(s0)
 8001d8c:	c398                	sw	a4,0(a5)
 8001d8e:	a839                	j	8001dac <prvInsertBlockIntoFreeList+0xda>
		}
		else
		{
			pxBlockToInsert->pxNextFreeBlock = pxEnd;
 8001d90:	081197b7          	lui	a5,0x8119
 8001d94:	f5c7a703          	lw	a4,-164(a5) # 8118f5c <pxEnd>
 8001d98:	fdc42783          	lw	a5,-36(s0)
 8001d9c:	c398                	sw	a4,0(a5)
 8001d9e:	a039                	j	8001dac <prvInsertBlockIntoFreeList+0xda>
		}
	}
	else
	{
		pxBlockToInsert->pxNextFreeBlock = pxIterator->pxNextFreeBlock;
 8001da0:	fec42783          	lw	a5,-20(s0)
 8001da4:	4398                	lw	a4,0(a5)
 8001da6:	fdc42783          	lw	a5,-36(s0)
 8001daa:	c398                	sw	a4,0(a5)

	/* If the block being inserted plugged a gab, so was merged with the block
	before and the block after, then it's pxNextFreeBlock pointer will have
	already been set, and should not be set here as that would make it point
	to itself. */
	if( pxIterator != pxBlockToInsert )
 8001dac:	fec42703          	lw	a4,-20(s0)
 8001db0:	fdc42783          	lw	a5,-36(s0)
 8001db4:	00f70763          	beq	a4,a5,8001dc2 <prvInsertBlockIntoFreeList+0xf0>
	{
		pxIterator->pxNextFreeBlock = pxBlockToInsert;
 8001db8:	fec42783          	lw	a5,-20(s0)
 8001dbc:	fdc42703          	lw	a4,-36(s0)
 8001dc0:	c398                	sw	a4,0(a5)
	}
	else
	{
		mtCOVERAGE_TEST_MARKER();
	}
}
 8001dc2:	0001                	nop
 8001dc4:	5432                	lw	s0,44(sp)
 8001dc6:	6145                	addi	sp,sp,48
 8001dc8:	8082                	ret

08001dca <xQueueGenericReset>:
	}														\
	taskEXIT_CRITICAL()
/*-----------------------------------------------------------*/

BaseType_t xQueueGenericReset( QueueHandle_t xQueue, BaseType_t xNewQueue )
{
 8001dca:	715d                	addi	sp,sp,-80
 8001dcc:	c686                	sw	ra,76(sp)
 8001dce:	c4a2                	sw	s0,72(sp)
 8001dd0:	0880                	addi	s0,sp,80
 8001dd2:	faa42e23          	sw	a0,-68(s0)
 8001dd6:	fab42c23          	sw	a1,-72(s0)
Queue_t * const pxQueue = xQueue;
 8001dda:	fbc42783          	lw	a5,-68(s0)
 8001dde:	fef42623          	sw	a5,-20(s0)

	configASSERT( pxQueue );
 8001de2:	fec42783          	lw	a5,-20(s0)
 8001de6:	e395                	bnez	a5,8001e0a <xQueueGenericReset+0x40>
    ECLIC_SetMth(uxMaxSysCallMTH);
 8001de8:	081177b7          	lui	a5,0x8117
 8001dec:	7f47c783          	lbu	a5,2036(a5) # 81177f4 <uxMaxSysCallMTH>
 8001df0:	fef405a3          	sb	a5,-21(s0)
    ECLIC->MTH = mth;
 8001df4:	000207b7          	lui	a5,0x20
 8001df8:	feb44703          	lbu	a4,-21(s0)
 8001dfc:	00e785a3          	sb	a4,11(a5) # 2000b <__HEAP_SIZE+0x1f80b>
}
 8001e00:	0001                	nop
    __RWMB();
 8001e02:	0ff0000f          	fence
}
 8001e06:	0001                	nop
 8001e08:	a001                	j	8001e08 <xQueueGenericReset+0x3e>

	taskENTER_CRITICAL();
 8001e0a:	ee9fe0ef          	jal	ra,8000cf2 <vPortEnterCritical>
	{
		pxQueue->u.xQueue.pcTail = pxQueue->pcHead + ( pxQueue->uxLength * pxQueue->uxItemSize ); /*lint !e9016 Pointer arithmetic allowed on char types, especially when it assists conveying intent. */
 8001e0e:	fec42783          	lw	a5,-20(s0)
 8001e12:	4398                	lw	a4,0(a5)
 8001e14:	fec42783          	lw	a5,-20(s0)
 8001e18:	43f4                	lw	a3,68(a5)
 8001e1a:	fec42783          	lw	a5,-20(s0)
 8001e1e:	47bc                	lw	a5,72(a5)
 8001e20:	02f687b3          	mul	a5,a3,a5
 8001e24:	973e                	add	a4,a4,a5
 8001e26:	fec42783          	lw	a5,-20(s0)
 8001e2a:	c798                	sw	a4,8(a5)
		pxQueue->uxMessagesWaiting = ( UBaseType_t ) 0U;
 8001e2c:	fec42783          	lw	a5,-20(s0)
 8001e30:	0407a023          	sw	zero,64(a5)
		pxQueue->pcWriteTo = pxQueue->pcHead;
 8001e34:	fec42783          	lw	a5,-20(s0)
 8001e38:	4398                	lw	a4,0(a5)
 8001e3a:	fec42783          	lw	a5,-20(s0)
 8001e3e:	c3d8                	sw	a4,4(a5)
		pxQueue->u.xQueue.pcReadFrom = pxQueue->pcHead + ( ( pxQueue->uxLength - 1U ) * pxQueue->uxItemSize ); /*lint !e9016 Pointer arithmetic allowed on char types, especially when it assists conveying intent. */
 8001e40:	fec42783          	lw	a5,-20(s0)
 8001e44:	4398                	lw	a4,0(a5)
 8001e46:	fec42783          	lw	a5,-20(s0)
 8001e4a:	43fc                	lw	a5,68(a5)
 8001e4c:	fff78693          	addi	a3,a5,-1
 8001e50:	fec42783          	lw	a5,-20(s0)
 8001e54:	47bc                	lw	a5,72(a5)
 8001e56:	02f687b3          	mul	a5,a3,a5
 8001e5a:	973e                	add	a4,a4,a5
 8001e5c:	fec42783          	lw	a5,-20(s0)
 8001e60:	c7d8                	sw	a4,12(a5)
		pxQueue->cRxLock = queueUNLOCKED;
 8001e62:	fec42783          	lw	a5,-20(s0)
 8001e66:	577d                	li	a4,-1
 8001e68:	04e78623          	sb	a4,76(a5)
		pxQueue->cTxLock = queueUNLOCKED;
 8001e6c:	fec42783          	lw	a5,-20(s0)
 8001e70:	577d                	li	a4,-1
 8001e72:	04e786a3          	sb	a4,77(a5)

		if( xNewQueue == pdFALSE )
 8001e76:	fb842783          	lw	a5,-72(s0)
 8001e7a:	efc1                	bnez	a5,8001f12 <xQueueGenericReset+0x148>
			/* If there are tasks blocked waiting to read from the queue, then
			the tasks will remain blocked as after this function exits the queue
			will still be empty.  If there are tasks blocked waiting to write to
			the queue, then one should be unblocked as after this function exits
			it will be possible to write to it. */
			if( listLIST_IS_EMPTY( &( pxQueue->xTasksWaitingToSend ) ) == pdFALSE )
 8001e7c:	fec42783          	lw	a5,-20(s0)
 8001e80:	4b9c                	lw	a5,16(a5)
 8001e82:	c7cd                	beqz	a5,8001f2c <xQueueGenericReset+0x162>
			{
				if( xTaskRemoveFromEventList( &( pxQueue->xTasksWaitingToSend ) ) != pdFALSE )
 8001e84:	fec42783          	lw	a5,-20(s0)
 8001e88:	07c1                	addi	a5,a5,16
 8001e8a:	853e                	mv	a0,a5
 8001e8c:	6d5010ef          	jal	ra,8003d60 <xTaskRemoveFromEventList>
 8001e90:	87aa                	mv	a5,a0
 8001e92:	cfc9                	beqz	a5,8001f2c <xQueueGenericReset+0x162>
    id = __RV_CSR_READ(CSR_MHARTID) & 0xFF;
 8001e94:	f14027f3          	csrr	a5,mhartid
 8001e98:	fef42223          	sw	a5,-28(s0)
 8001e9c:	fe442783          	lw	a5,-28(s0)
 8001ea0:	0ff7f793          	zext.b	a5,a5
 8001ea4:	fef42023          	sw	a5,-32(s0)
    return id;
 8001ea8:	fe042783          	lw	a5,-32(s0)
    unsigned long hartid = __get_hart_id();
 8001eac:	fcf42e23          	sw	a5,-36(s0)
 8001eb0:	fdc42783          	lw	a5,-36(s0)
 8001eb4:	fcf42c23          	sw	a5,-40(s0)
    if (hartid == 0) {
 8001eb8:	fd842783          	lw	a5,-40(s0)
 8001ebc:	e385                	bnez	a5,8001edc <xQueueGenericReset+0x112>
        SysTimer->MSIP |= SysTimer_MSIP_MSIP_Msk;
 8001ebe:	00030737          	lui	a4,0x30
 8001ec2:	6785                	lui	a5,0x1
 8001ec4:	97ba                	add	a5,a5,a4
 8001ec6:	ffc7a783          	lw	a5,-4(a5) # ffc <__HEAP_SIZE+0x7fc>
 8001eca:	000306b7          	lui	a3,0x30
 8001ece:	0017e713          	ori	a4,a5,1
 8001ed2:	6785                	lui	a5,0x1
 8001ed4:	97b6                	add	a5,a5,a3
 8001ed6:	fee7ae23          	sw	a4,-4(a5) # ffc <__HEAP_SIZE+0x7fc>
}
 8001eda:	a03d                	j	8001f08 <xQueueGenericReset+0x13e>
        uint8_t *addr = (uint8_t *)(SysTimer_CLINT_MSIP_BASE(hartid));
 8001edc:	fd842783          	lw	a5,-40(s0)
 8001ee0:	00279713          	slli	a4,a5,0x2
 8001ee4:	000317b7          	lui	a5,0x31
 8001ee8:	97ba                	add	a5,a5,a4
 8001eea:	fcf42a23          	sw	a5,-44(s0)
 8001eee:	fd442783          	lw	a5,-44(s0)
 8001ef2:	fcf42823          	sw	a5,-48(s0)
 8001ef6:	4785                	li	a5,1
 8001ef8:	fcf42623          	sw	a5,-52(s0)
    __ASM volatile ("sw %0, 0(%1)" : : "r" (val), "r" (addr));
 8001efc:	fcc42783          	lw	a5,-52(s0)
 8001f00:	fd042703          	lw	a4,-48(s0)
 8001f04:	c31c                	sw	a5,0(a4)
}
 8001f06:	0001                	nop
}
 8001f08:	0001                	nop
}
 8001f0a:	0001                	nop
				{
					queueYIELD_IF_USING_PREEMPTION();
 8001f0c:	0ff0000f          	fence
 8001f10:	a831                	j	8001f2c <xQueueGenericReset+0x162>
			}
		}
		else
		{
			/* Ensure the event queues start in the correct state. */
			vListInitialise( &( pxQueue->xTasksWaitingToSend ) );
 8001f12:	fec42783          	lw	a5,-20(s0)
 8001f16:	07c1                	addi	a5,a5,16
 8001f18:	853e                	mv	a0,a5
 8001f1a:	d7afe0ef          	jal	ra,8000494 <vListInitialise>
			vListInitialise( &( pxQueue->xTasksWaitingToReceive ) );
 8001f1e:	fec42783          	lw	a5,-20(s0)
 8001f22:	02878793          	addi	a5,a5,40 # 31028 <__HEAP_SIZE+0x30828>
 8001f26:	853e                	mv	a0,a5
 8001f28:	d6cfe0ef          	jal	ra,8000494 <vListInitialise>
		}
	}
	taskEXIT_CRITICAL();
 8001f2c:	e51fe0ef          	jal	ra,8000d7c <vPortExitCritical>

	/* A value is returned for calling semantic consistency with previous
	versions. */
	return pdPASS;
 8001f30:	4785                	li	a5,1
}
 8001f32:	853e                	mv	a0,a5
 8001f34:	40b6                	lw	ra,76(sp)
 8001f36:	4426                	lw	s0,72(sp)
 8001f38:	6161                	addi	sp,sp,80
 8001f3a:	8082                	ret

08001f3c <xQueueGenericCreate>:
/*-----------------------------------------------------------*/

#if( configSUPPORT_DYNAMIC_ALLOCATION == 1 )

	QueueHandle_t xQueueGenericCreate( const UBaseType_t uxQueueLength, const UBaseType_t uxItemSize, const uint8_t ucQueueType )
	{
 8001f3c:	7179                	addi	sp,sp,-48
 8001f3e:	d606                	sw	ra,44(sp)
 8001f40:	d422                	sw	s0,40(sp)
 8001f42:	1800                	addi	s0,sp,48
 8001f44:	fca42e23          	sw	a0,-36(s0)
 8001f48:	fcb42c23          	sw	a1,-40(s0)
 8001f4c:	87b2                	mv	a5,a2
 8001f4e:	fcf40ba3          	sb	a5,-41(s0)
	Queue_t *pxNewQueue;
	size_t xQueueSizeInBytes;
	uint8_t *pucQueueStorage;

		configASSERT( uxQueueLength > ( UBaseType_t ) 0 );
 8001f52:	fdc42783          	lw	a5,-36(s0)
 8001f56:	e395                	bnez	a5,8001f7a <xQueueGenericCreate+0x3e>
    ECLIC_SetMth(uxMaxSysCallMTH);
 8001f58:	081177b7          	lui	a5,0x8117
 8001f5c:	7f47c783          	lbu	a5,2036(a5) # 81177f4 <uxMaxSysCallMTH>
 8001f60:	fef401a3          	sb	a5,-29(s0)
    ECLIC->MTH = mth;
 8001f64:	000207b7          	lui	a5,0x20
 8001f68:	fe344703          	lbu	a4,-29(s0)
 8001f6c:	00e785a3          	sb	a4,11(a5) # 2000b <__HEAP_SIZE+0x1f80b>
}
 8001f70:	0001                	nop
    __RWMB();
 8001f72:	0ff0000f          	fence
}
 8001f76:	0001                	nop
 8001f78:	a001                	j	8001f78 <xQueueGenericCreate+0x3c>

		/* Allocate enough space to hold the maximum number of items that
		can be in the queue at any time.  It is valid for uxItemSize to be
		zero in the case the queue is used as a semaphore. */
		xQueueSizeInBytes = ( size_t ) ( uxQueueLength * uxItemSize ); /*lint !e961 MISRA exception as the casts are only redundant for some ports. */
 8001f7a:	fdc42703          	lw	a4,-36(s0)
 8001f7e:	fd842783          	lw	a5,-40(s0)
 8001f82:	02f707b3          	mul	a5,a4,a5
 8001f86:	fef42623          	sw	a5,-20(s0)
		alignment requirements of the Queue_t structure - which in this case
		is an int8_t *.  Therefore, whenever the stack alignment requirements
		are greater than or equal to the pointer to char requirements the cast
		is safe.  In other cases alignment requirements are not strict (one or
		two bytes). */
		pxNewQueue = ( Queue_t * ) pvPortMalloc( sizeof( Queue_t ) + xQueueSizeInBytes ); /*lint !e9087 !e9079 see comment above. */
 8001f8a:	fec42783          	lw	a5,-20(s0)
 8001f8e:	05078793          	addi	a5,a5,80
 8001f92:	853e                	mv	a0,a5
 8001f94:	38ed                	jal	800188e <pvPortMalloc>
 8001f96:	fea42423          	sw	a0,-24(s0)

		if( pxNewQueue != NULL )
 8001f9a:	fe842783          	lw	a5,-24(s0)
 8001f9e:	c79d                	beqz	a5,8001fcc <xQueueGenericCreate+0x90>
		{
			/* Jump past the queue structure to find the location of the queue
			storage area. */
			pucQueueStorage = ( uint8_t * ) pxNewQueue;
 8001fa0:	fe842783          	lw	a5,-24(s0)
 8001fa4:	fef42223          	sw	a5,-28(s0)
			pucQueueStorage += sizeof( Queue_t ); /*lint !e9016 Pointer arithmetic allowed on char types, especially when it assists conveying intent. */
 8001fa8:	fe442783          	lw	a5,-28(s0)
 8001fac:	05078793          	addi	a5,a5,80
 8001fb0:	fef42223          	sw	a5,-28(s0)
				deleted. */
				pxNewQueue->ucStaticallyAllocated = pdFALSE;
			}
			#endif /* configSUPPORT_STATIC_ALLOCATION */

			prvInitialiseNewQueue( uxQueueLength, uxItemSize, pucQueueStorage, ucQueueType, pxNewQueue );
 8001fb4:	fd744783          	lbu	a5,-41(s0)
 8001fb8:	fe842703          	lw	a4,-24(s0)
 8001fbc:	86be                	mv	a3,a5
 8001fbe:	fe442603          	lw	a2,-28(s0)
 8001fc2:	fd842583          	lw	a1,-40(s0)
 8001fc6:	fdc42503          	lw	a0,-36(s0)
 8001fca:	2801                	jal	8001fda <prvInitialiseNewQueue>
		{
			traceQUEUE_CREATE_FAILED( ucQueueType );
			mtCOVERAGE_TEST_MARKER();
		}

		return pxNewQueue;
 8001fcc:	fe842783          	lw	a5,-24(s0)
	}
 8001fd0:	853e                	mv	a0,a5
 8001fd2:	50b2                	lw	ra,44(sp)
 8001fd4:	5422                	lw	s0,40(sp)
 8001fd6:	6145                	addi	sp,sp,48
 8001fd8:	8082                	ret

08001fda <prvInitialiseNewQueue>:

#endif /* configSUPPORT_STATIC_ALLOCATION */
/*-----------------------------------------------------------*/

static void prvInitialiseNewQueue( const UBaseType_t uxQueueLength, const UBaseType_t uxItemSize, uint8_t *pucQueueStorage, const uint8_t ucQueueType, Queue_t *pxNewQueue )
{
 8001fda:	7179                	addi	sp,sp,-48
 8001fdc:	d606                	sw	ra,44(sp)
 8001fde:	d422                	sw	s0,40(sp)
 8001fe0:	1800                	addi	s0,sp,48
 8001fe2:	fea42623          	sw	a0,-20(s0)
 8001fe6:	feb42423          	sw	a1,-24(s0)
 8001fea:	fec42223          	sw	a2,-28(s0)
 8001fee:	87b6                	mv	a5,a3
 8001ff0:	fce42e23          	sw	a4,-36(s0)
 8001ff4:	fef401a3          	sb	a5,-29(s0)
	/* Remove compiler warnings about unused parameters should
	configUSE_TRACE_FACILITY not be set to 1. */
	( void ) ucQueueType;

	if( uxItemSize == ( UBaseType_t ) 0 )
 8001ff8:	fe842783          	lw	a5,-24(s0)
 8001ffc:	e799                	bnez	a5,800200a <prvInitialiseNewQueue+0x30>
	{
		/* No RAM was allocated for the queue storage area, but PC head cannot
		be set to NULL because NULL is used as a key to say the queue is used as
		a mutex.  Therefore just set pcHead to point to the queue as a benign
		value that is known to be within the memory map. */
		pxNewQueue->pcHead = ( int8_t * ) pxNewQueue;
 8001ffe:	fdc42783          	lw	a5,-36(s0)
 8002002:	fdc42703          	lw	a4,-36(s0)
 8002006:	c398                	sw	a4,0(a5)
 8002008:	a031                	j	8002014 <prvInitialiseNewQueue+0x3a>
	}
	else
	{
		/* Set the head to the start of the queue storage area. */
		pxNewQueue->pcHead = ( int8_t * ) pucQueueStorage;
 800200a:	fdc42783          	lw	a5,-36(s0)
 800200e:	fe442703          	lw	a4,-28(s0)
 8002012:	c398                	sw	a4,0(a5)
	}

	/* Initialise the queue members as described where the queue type is
	defined. */
	pxNewQueue->uxLength = uxQueueLength;
 8002014:	fdc42783          	lw	a5,-36(s0)
 8002018:	fec42703          	lw	a4,-20(s0)
 800201c:	c3f8                	sw	a4,68(a5)
	pxNewQueue->uxItemSize = uxItemSize;
 800201e:	fdc42783          	lw	a5,-36(s0)
 8002022:	fe842703          	lw	a4,-24(s0)
 8002026:	c7b8                	sw	a4,72(a5)
	( void ) xQueueGenericReset( pxNewQueue, pdTRUE );
 8002028:	4585                	li	a1,1
 800202a:	fdc42503          	lw	a0,-36(s0)
 800202e:	3b71                	jal	8001dca <xQueueGenericReset>
		pxNewQueue->pxQueueSetContainer = NULL;
	}
	#endif /* configUSE_QUEUE_SETS */

	traceQUEUE_CREATE( pxNewQueue );
}
 8002030:	0001                	nop
 8002032:	50b2                	lw	ra,44(sp)
 8002034:	5422                	lw	s0,40(sp)
 8002036:	6145                	addi	sp,sp,48
 8002038:	8082                	ret

0800203a <prvInitialiseMutex>:
/*-----------------------------------------------------------*/

#if( configUSE_MUTEXES == 1 )

	static void prvInitialiseMutex( Queue_t *pxNewQueue )
	{
 800203a:	1101                	addi	sp,sp,-32
 800203c:	ce06                	sw	ra,28(sp)
 800203e:	cc22                	sw	s0,24(sp)
 8002040:	1000                	addi	s0,sp,32
 8002042:	fea42623          	sw	a0,-20(s0)
		if( pxNewQueue != NULL )
 8002046:	fec42783          	lw	a5,-20(s0)
 800204a:	c785                	beqz	a5,8002072 <prvInitialiseMutex+0x38>
		{
			/* The queue create function will set all the queue structure members
			correctly for a generic queue, but this function is creating a
			mutex.  Overwrite those members that need to be set differently -
			in particular the information required for priority inheritance. */
			pxNewQueue->u.xSemaphore.xMutexHolder = NULL;
 800204c:	fec42783          	lw	a5,-20(s0)
 8002050:	0007a423          	sw	zero,8(a5)
			pxNewQueue->uxQueueType = queueQUEUE_IS_MUTEX;
 8002054:	fec42783          	lw	a5,-20(s0)
 8002058:	0007a023          	sw	zero,0(a5)

			/* In case this is a recursive mutex. */
			pxNewQueue->u.xSemaphore.uxRecursiveCallCount = 0;
 800205c:	fec42783          	lw	a5,-20(s0)
 8002060:	0007a623          	sw	zero,12(a5)

			traceCREATE_MUTEX( pxNewQueue );

			/* Start with the semaphore in the expected state. */
			( void ) xQueueGenericSend( pxNewQueue, NULL, ( TickType_t ) 0U, queueSEND_TO_BACK );
 8002064:	4701                	li	a4,0
 8002066:	4601                	li	a2,0
 8002068:	4681                	li	a3,0
 800206a:	4581                	li	a1,0
 800206c:	fec42503          	lw	a0,-20(s0)
 8002070:	20b1                	jal	80020bc <xQueueGenericSend>
		}
		else
		{
			traceCREATE_MUTEX_FAILED();
		}
	}
 8002072:	0001                	nop
 8002074:	40f2                	lw	ra,28(sp)
 8002076:	4462                	lw	s0,24(sp)
 8002078:	6105                	addi	sp,sp,32
 800207a:	8082                	ret

0800207c <xQueueCreateMutex>:
/*-----------------------------------------------------------*/

#if( ( configUSE_MUTEXES == 1 ) && ( configSUPPORT_DYNAMIC_ALLOCATION == 1 ) )

	QueueHandle_t xQueueCreateMutex( const uint8_t ucQueueType )
	{
 800207c:	7179                	addi	sp,sp,-48
 800207e:	d606                	sw	ra,44(sp)
 8002080:	d422                	sw	s0,40(sp)
 8002082:	1800                	addi	s0,sp,48
 8002084:	87aa                	mv	a5,a0
 8002086:	fcf40fa3          	sb	a5,-33(s0)
	QueueHandle_t xNewQueue;
	const UBaseType_t uxMutexLength = ( UBaseType_t ) 1, uxMutexSize = ( UBaseType_t ) 0;
 800208a:	4785                	li	a5,1
 800208c:	fef42623          	sw	a5,-20(s0)
 8002090:	fe042423          	sw	zero,-24(s0)

		xNewQueue = xQueueGenericCreate( uxMutexLength, uxMutexSize, ucQueueType );
 8002094:	fdf44783          	lbu	a5,-33(s0)
 8002098:	863e                	mv	a2,a5
 800209a:	fe842583          	lw	a1,-24(s0)
 800209e:	fec42503          	lw	a0,-20(s0)
 80020a2:	3d69                	jal	8001f3c <xQueueGenericCreate>
 80020a4:	fea42223          	sw	a0,-28(s0)
		prvInitialiseMutex( ( Queue_t * ) xNewQueue );
 80020a8:	fe442503          	lw	a0,-28(s0)
 80020ac:	3779                	jal	800203a <prvInitialiseMutex>

		return xNewQueue;
 80020ae:	fe442783          	lw	a5,-28(s0)
	}
 80020b2:	853e                	mv	a0,a5
 80020b4:	50b2                	lw	ra,44(sp)
 80020b6:	5422                	lw	s0,40(sp)
 80020b8:	6145                	addi	sp,sp,48
 80020ba:	8082                	ret

080020bc <xQueueGenericSend>:

#endif /* ( ( configUSE_COUNTING_SEMAPHORES == 1 ) && ( configSUPPORT_DYNAMIC_ALLOCATION == 1 ) ) */
/*-----------------------------------------------------------*/

BaseType_t xQueueGenericSend( QueueHandle_t xQueue, const void * const pvItemToQueue, TickType_t xTicksToWait, const BaseType_t xCopyPosition )
{
 80020bc:	7171                	addi	sp,sp,-176
 80020be:	d706                	sw	ra,172(sp)
 80020c0:	d522                	sw	s0,168(sp)
 80020c2:	1900                	addi	s0,sp,176
 80020c4:	f6a42623          	sw	a0,-148(s0)
 80020c8:	f6b42423          	sw	a1,-152(s0)
 80020cc:	f6c42023          	sw	a2,-160(s0)
 80020d0:	f6d42223          	sw	a3,-156(s0)
 80020d4:	f4e42e23          	sw	a4,-164(s0)
BaseType_t xEntryTimeSet = pdFALSE, xYieldRequired;
 80020d8:	fe042623          	sw	zero,-20(s0)
TimeOut_t xTimeOut;
Queue_t * const pxQueue = xQueue;
 80020dc:	f6c42783          	lw	a5,-148(s0)
 80020e0:	fef42423          	sw	a5,-24(s0)

	configASSERT( pxQueue );
 80020e4:	fe842783          	lw	a5,-24(s0)
 80020e8:	e395                	bnez	a5,800210c <xQueueGenericSend+0x50>
    ECLIC_SetMth(uxMaxSysCallMTH);
 80020ea:	081177b7          	lui	a5,0x8117
 80020ee:	7f47c783          	lbu	a5,2036(a5) # 81177f4 <uxMaxSysCallMTH>
 80020f2:	fef401a3          	sb	a5,-29(s0)
    ECLIC->MTH = mth;
 80020f6:	000207b7          	lui	a5,0x20
 80020fa:	fe344703          	lbu	a4,-29(s0)
 80020fe:	00e785a3          	sb	a4,11(a5) # 2000b <__HEAP_SIZE+0x1f80b>
}
 8002102:	0001                	nop
    __RWMB();
 8002104:	0ff0000f          	fence
}
 8002108:	0001                	nop
 800210a:	a001                	j	800210a <xQueueGenericSend+0x4e>
	configASSERT( !( ( pvItemToQueue == NULL ) && ( pxQueue->uxItemSize != ( UBaseType_t ) 0U ) ) );
 800210c:	f6842783          	lw	a5,-152(s0)
 8002110:	e789                	bnez	a5,800211a <xQueueGenericSend+0x5e>
 8002112:	fe842783          	lw	a5,-24(s0)
 8002116:	47bc                	lw	a5,72(a5)
 8002118:	e399                	bnez	a5,800211e <xQueueGenericSend+0x62>
 800211a:	4785                	li	a5,1
 800211c:	a011                	j	8002120 <xQueueGenericSend+0x64>
 800211e:	4781                	li	a5,0
 8002120:	e395                	bnez	a5,8002144 <xQueueGenericSend+0x88>
    ECLIC_SetMth(uxMaxSysCallMTH);
 8002122:	081177b7          	lui	a5,0x8117
 8002126:	7f47c783          	lbu	a5,2036(a5) # 81177f4 <uxMaxSysCallMTH>
 800212a:	fef40123          	sb	a5,-30(s0)
    ECLIC->MTH = mth;
 800212e:	000207b7          	lui	a5,0x20
 8002132:	fe244703          	lbu	a4,-30(s0)
 8002136:	00e785a3          	sb	a4,11(a5) # 2000b <__HEAP_SIZE+0x1f80b>
}
 800213a:	0001                	nop
    __RWMB();
 800213c:	0ff0000f          	fence
}
 8002140:	0001                	nop
 8002142:	a001                	j	8002142 <xQueueGenericSend+0x86>
	configASSERT( !( ( xCopyPosition == queueOVERWRITE ) && ( pxQueue->uxLength != 1 ) ) );
 8002144:	f5c42703          	lw	a4,-164(s0)
 8002148:	4789                	li	a5,2
 800214a:	00f71863          	bne	a4,a5,800215a <xQueueGenericSend+0x9e>
 800214e:	fe842783          	lw	a5,-24(s0)
 8002152:	43f8                	lw	a4,68(a5)
 8002154:	4785                	li	a5,1
 8002156:	00f71463          	bne	a4,a5,800215e <xQueueGenericSend+0xa2>
 800215a:	4785                	li	a5,1
 800215c:	a011                	j	8002160 <xQueueGenericSend+0xa4>
 800215e:	4781                	li	a5,0
 8002160:	e395                	bnez	a5,8002184 <xQueueGenericSend+0xc8>
    ECLIC_SetMth(uxMaxSysCallMTH);
 8002162:	081177b7          	lui	a5,0x8117
 8002166:	7f47c783          	lbu	a5,2036(a5) # 81177f4 <uxMaxSysCallMTH>
 800216a:	fef400a3          	sb	a5,-31(s0)
    ECLIC->MTH = mth;
 800216e:	000207b7          	lui	a5,0x20
 8002172:	fe144703          	lbu	a4,-31(s0)
 8002176:	00e785a3          	sb	a4,11(a5) # 2000b <__HEAP_SIZE+0x1f80b>
}
 800217a:	0001                	nop
    __RWMB();
 800217c:	0ff0000f          	fence
}
 8002180:	0001                	nop
 8002182:	a001                	j	8002182 <xQueueGenericSend+0xc6>
	#if ( ( INCLUDE_xTaskGetSchedulerState == 1 ) || ( configUSE_TIMERS == 1 ) )
	{
		configASSERT( !( ( xTaskGetSchedulerState() == taskSCHEDULER_SUSPENDED ) && ( xTicksToWait != 0 ) ) );
 8002184:	04a020ef          	jal	ra,80041ce <xTaskGetSchedulerState>
 8002188:	87aa                	mv	a5,a0
 800218a:	eb81                	bnez	a5,800219a <xQueueGenericSend+0xde>
 800218c:	f6042603          	lw	a2,-160(s0)
 8002190:	f6442683          	lw	a3,-156(s0)
 8002194:	87b2                	mv	a5,a2
 8002196:	8fd5                	or	a5,a5,a3
 8002198:	e399                	bnez	a5,800219e <xQueueGenericSend+0xe2>
 800219a:	4785                	li	a5,1
 800219c:	a011                	j	80021a0 <xQueueGenericSend+0xe4>
 800219e:	4781                	li	a5,0
 80021a0:	e395                	bnez	a5,80021c4 <xQueueGenericSend+0x108>
    ECLIC_SetMth(uxMaxSysCallMTH);
 80021a2:	081177b7          	lui	a5,0x8117
 80021a6:	7f47c783          	lbu	a5,2036(a5) # 81177f4 <uxMaxSysCallMTH>
 80021aa:	fef40023          	sb	a5,-32(s0)
    ECLIC->MTH = mth;
 80021ae:	000207b7          	lui	a5,0x20
 80021b2:	fe044703          	lbu	a4,-32(s0)
 80021b6:	00e785a3          	sb	a4,11(a5) # 2000b <__HEAP_SIZE+0x1f80b>
}
 80021ba:	0001                	nop
    __RWMB();
 80021bc:	0ff0000f          	fence
}
 80021c0:	0001                	nop
 80021c2:	a001                	j	80021c2 <xQueueGenericSend+0x106>
	/*lint -save -e904 This function relaxes the coding standard somewhat to
	allow return statements within the function itself.  This is done in the
	interest of execution time efficiency. */
	for( ;; )
	{
		taskENTER_CRITICAL();
 80021c4:	b2ffe0ef          	jal	ra,8000cf2 <vPortEnterCritical>
		{
			/* Is there room on the queue now?  The running task must be the
			highest priority task wanting to access the queue.  If the head item
			in the queue is to be overwritten then it does not matter if the
			queue is full. */
			if( ( pxQueue->uxMessagesWaiting < pxQueue->uxLength ) || ( xCopyPosition == queueOVERWRITE ) )
 80021c8:	fe842783          	lw	a5,-24(s0)
 80021cc:	43b8                	lw	a4,64(a5)
 80021ce:	fe842783          	lw	a5,-24(s0)
 80021d2:	43fc                	lw	a5,68(a5)
 80021d4:	00f76763          	bltu	a4,a5,80021e2 <xQueueGenericSend+0x126>
 80021d8:	f5c42703          	lw	a4,-164(s0)
 80021dc:	4789                	li	a5,2
 80021de:	12f71e63          	bne	a4,a5,800231a <xQueueGenericSend+0x25e>
						}
					}
				}
				#else /* configUSE_QUEUE_SETS */
				{
					xYieldRequired = prvCopyDataToQueue( pxQueue, pvItemToQueue, xCopyPosition );
 80021e2:	f5c42603          	lw	a2,-164(s0)
 80021e6:	f6842583          	lw	a1,-152(s0)
 80021ea:	fe842503          	lw	a0,-24(s0)
 80021ee:	2dd000ef          	jal	ra,8002cca <prvCopyDataToQueue>
 80021f2:	fea42223          	sw	a0,-28(s0)

					/* If there was a task waiting for data to arrive on the
					queue then unblock it now. */
					if( listLIST_IS_EMPTY( &( pxQueue->xTasksWaitingToReceive ) ) == pdFALSE )
 80021f6:	fe842783          	lw	a5,-24(s0)
 80021fa:	579c                	lw	a5,40(a5)
 80021fc:	cbd1                	beqz	a5,8002290 <xQueueGenericSend+0x1d4>
					{
						if( xTaskRemoveFromEventList( &( pxQueue->xTasksWaitingToReceive ) ) != pdFALSE )
 80021fe:	fe842783          	lw	a5,-24(s0)
 8002202:	02878793          	addi	a5,a5,40
 8002206:	853e                	mv	a0,a5
 8002208:	359010ef          	jal	ra,8003d60 <xTaskRemoveFromEventList>
 800220c:	87aa                	mv	a5,a0
 800220e:	10078263          	beqz	a5,8002312 <xQueueGenericSend+0x256>
    id = __RV_CSR_READ(CSR_MHARTID) & 0xFF;
 8002212:	f14027f3          	csrr	a5,mhartid
 8002216:	fcf42e23          	sw	a5,-36(s0)
 800221a:	fdc42783          	lw	a5,-36(s0)
 800221e:	0ff7f793          	zext.b	a5,a5
 8002222:	fcf42c23          	sw	a5,-40(s0)
    return id;
 8002226:	fd842783          	lw	a5,-40(s0)
    unsigned long hartid = __get_hart_id();
 800222a:	fcf42a23          	sw	a5,-44(s0)
 800222e:	fd442783          	lw	a5,-44(s0)
 8002232:	fcf42823          	sw	a5,-48(s0)
    if (hartid == 0) {
 8002236:	fd042783          	lw	a5,-48(s0)
 800223a:	e385                	bnez	a5,800225a <xQueueGenericSend+0x19e>
        SysTimer->MSIP |= SysTimer_MSIP_MSIP_Msk;
 800223c:	00030737          	lui	a4,0x30
 8002240:	6785                	lui	a5,0x1
 8002242:	97ba                	add	a5,a5,a4
 8002244:	ffc7a783          	lw	a5,-4(a5) # ffc <__HEAP_SIZE+0x7fc>
 8002248:	000306b7          	lui	a3,0x30
 800224c:	0017e713          	ori	a4,a5,1
 8002250:	6785                	lui	a5,0x1
 8002252:	97b6                	add	a5,a5,a3
 8002254:	fee7ae23          	sw	a4,-4(a5) # ffc <__HEAP_SIZE+0x7fc>
}
 8002258:	a03d                	j	8002286 <xQueueGenericSend+0x1ca>
        uint8_t *addr = (uint8_t *)(SysTimer_CLINT_MSIP_BASE(hartid));
 800225a:	fd042783          	lw	a5,-48(s0)
 800225e:	00279713          	slli	a4,a5,0x2
 8002262:	000317b7          	lui	a5,0x31
 8002266:	97ba                	add	a5,a5,a4
 8002268:	fcf42623          	sw	a5,-52(s0)
 800226c:	fcc42783          	lw	a5,-52(s0)
 8002270:	fcf42423          	sw	a5,-56(s0)
 8002274:	4785                	li	a5,1
 8002276:	fcf42223          	sw	a5,-60(s0)
    __ASM volatile ("sw %0, 0(%1)" : : "r" (val), "r" (addr));
 800227a:	fc442783          	lw	a5,-60(s0)
 800227e:	fc842703          	lw	a4,-56(s0)
 8002282:	c31c                	sw	a5,0(a4)
}
 8002284:	0001                	nop
}
 8002286:	0001                	nop
}
 8002288:	0001                	nop
						{
							/* The unblocked task has a priority higher than
							our own so yield immediately.  Yes it is ok to do
							this from within the critical section - the kernel
							takes care of that. */
							queueYIELD_IF_USING_PREEMPTION();
 800228a:	0ff0000f          	fence
 800228e:	a051                	j	8002312 <xQueueGenericSend+0x256>
						else
						{
							mtCOVERAGE_TEST_MARKER();
						}
					}
					else if( xYieldRequired != pdFALSE )
 8002290:	fe442783          	lw	a5,-28(s0)
 8002294:	cfbd                	beqz	a5,8002312 <xQueueGenericSend+0x256>
    id = __RV_CSR_READ(CSR_MHARTID) & 0xFF;
 8002296:	f14027f3          	csrr	a5,mhartid
 800229a:	fcf42023          	sw	a5,-64(s0)
 800229e:	fc042783          	lw	a5,-64(s0)
 80022a2:	0ff7f793          	zext.b	a5,a5
 80022a6:	faf42e23          	sw	a5,-68(s0)
    return id;
 80022aa:	fbc42783          	lw	a5,-68(s0)
    unsigned long hartid = __get_hart_id();
 80022ae:	faf42c23          	sw	a5,-72(s0)
 80022b2:	fb842783          	lw	a5,-72(s0)
 80022b6:	faf42a23          	sw	a5,-76(s0)
    if (hartid == 0) {
 80022ba:	fb442783          	lw	a5,-76(s0)
 80022be:	e385                	bnez	a5,80022de <xQueueGenericSend+0x222>
        SysTimer->MSIP |= SysTimer_MSIP_MSIP_Msk;
 80022c0:	00030737          	lui	a4,0x30
 80022c4:	6785                	lui	a5,0x1
 80022c6:	97ba                	add	a5,a5,a4
 80022c8:	ffc7a783          	lw	a5,-4(a5) # ffc <__HEAP_SIZE+0x7fc>
 80022cc:	000306b7          	lui	a3,0x30
 80022d0:	0017e713          	ori	a4,a5,1
 80022d4:	6785                	lui	a5,0x1
 80022d6:	97b6                	add	a5,a5,a3
 80022d8:	fee7ae23          	sw	a4,-4(a5) # ffc <__HEAP_SIZE+0x7fc>
}
 80022dc:	a03d                	j	800230a <xQueueGenericSend+0x24e>
        uint8_t *addr = (uint8_t *)(SysTimer_CLINT_MSIP_BASE(hartid));
 80022de:	fb442783          	lw	a5,-76(s0)
 80022e2:	00279713          	slli	a4,a5,0x2
 80022e6:	000317b7          	lui	a5,0x31
 80022ea:	97ba                	add	a5,a5,a4
 80022ec:	faf42823          	sw	a5,-80(s0)
 80022f0:	fb042783          	lw	a5,-80(s0)
 80022f4:	faf42623          	sw	a5,-84(s0)
 80022f8:	4785                	li	a5,1
 80022fa:	faf42423          	sw	a5,-88(s0)
    __ASM volatile ("sw %0, 0(%1)" : : "r" (val), "r" (addr));
 80022fe:	fa842783          	lw	a5,-88(s0)
 8002302:	fac42703          	lw	a4,-84(s0)
 8002306:	c31c                	sw	a5,0(a4)
}
 8002308:	0001                	nop
}
 800230a:	0001                	nop
}
 800230c:	0001                	nop
					{
						/* This path is a special case that will only get
						executed if the task was holding multiple mutexes and
						the mutexes were given back in an order that is
						different to that in which they were taken. */
						queueYIELD_IF_USING_PREEMPTION();
 800230e:	0ff0000f          	fence
						mtCOVERAGE_TEST_MARKER();
					}
				}
				#endif /* configUSE_QUEUE_SETS */

				taskEXIT_CRITICAL();
 8002312:	a6bfe0ef          	jal	ra,8000d7c <vPortExitCritical>
				return pdPASS;
 8002316:	4785                	li	a5,1
 8002318:	aaa1                	j	8002470 <xQueueGenericSend+0x3b4>
			}
			else
			{
				if( xTicksToWait == ( TickType_t ) 0 )
 800231a:	f6042603          	lw	a2,-160(s0)
 800231e:	f6442683          	lw	a3,-156(s0)
 8002322:	87b2                	mv	a5,a2
 8002324:	8fd5                	or	a5,a5,a3
 8002326:	e789                	bnez	a5,8002330 <xQueueGenericSend+0x274>
				{
					/* The queue was full and no block time is specified (or
					the block time has expired) so leave now. */
					taskEXIT_CRITICAL();
 8002328:	a55fe0ef          	jal	ra,8000d7c <vPortExitCritical>

					/* Return to the original privilege level before exiting
					the function. */
					traceQUEUE_SEND_FAILED( pxQueue );
					return errQUEUE_FULL;
 800232c:	4781                	li	a5,0
 800232e:	a289                	j	8002470 <xQueueGenericSend+0x3b4>
				}
				else if( xEntryTimeSet == pdFALSE )
 8002330:	fec42783          	lw	a5,-20(s0)
 8002334:	eb89                	bnez	a5,8002346 <xQueueGenericSend+0x28a>
				{
					/* The queue was full and a block time was specified so
					configure the timeout structure. */
					vTaskInternalSetTimeOutState( &xTimeOut );
 8002336:	f7840793          	addi	a5,s0,-136
 800233a:	853e                	mv	a0,a5
 800233c:	31d010ef          	jal	ra,8003e58 <vTaskInternalSetTimeOutState>
					xEntryTimeSet = pdTRUE;
 8002340:	4785                	li	a5,1
 8002342:	fef42623          	sw	a5,-20(s0)
					/* Entry time was already set. */
					mtCOVERAGE_TEST_MARKER();
				}
			}
		}
		taskEXIT_CRITICAL();
 8002346:	a37fe0ef          	jal	ra,8000d7c <vPortExitCritical>

		/* Interrupts and other tasks can send to and receive from the queue
		now the critical section has been exited. */

		vTaskSuspendAll();
 800234a:	320010ef          	jal	ra,800366a <vTaskSuspendAll>
		prvLockQueue( pxQueue );
 800234e:	9a5fe0ef          	jal	ra,8000cf2 <vPortEnterCritical>
 8002352:	fe842783          	lw	a5,-24(s0)
 8002356:	04c7c783          	lbu	a5,76(a5) # 3104c <__HEAP_SIZE+0x3084c>
 800235a:	07e2                	slli	a5,a5,0x18
 800235c:	87e1                	srai	a5,a5,0x18
 800235e:	577d                	li	a4,-1
 8002360:	00e79663          	bne	a5,a4,800236c <xQueueGenericSend+0x2b0>
 8002364:	fe842783          	lw	a5,-24(s0)
 8002368:	04078623          	sb	zero,76(a5)
 800236c:	fe842783          	lw	a5,-24(s0)
 8002370:	04d7c783          	lbu	a5,77(a5)
 8002374:	07e2                	slli	a5,a5,0x18
 8002376:	87e1                	srai	a5,a5,0x18
 8002378:	577d                	li	a4,-1
 800237a:	00e79663          	bne	a5,a4,8002386 <xQueueGenericSend+0x2ca>
 800237e:	fe842783          	lw	a5,-24(s0)
 8002382:	040786a3          	sb	zero,77(a5)
 8002386:	9f7fe0ef          	jal	ra,8000d7c <vPortExitCritical>

		/* Update the timeout state to see if it has expired yet. */
		if( xTaskCheckForTimeOut( &xTimeOut, &xTicksToWait ) == pdFALSE )
 800238a:	f6040713          	addi	a4,s0,-160
 800238e:	f7840793          	addi	a5,s0,-136
 8002392:	85ba                	mv	a1,a4
 8002394:	853e                	mv	a0,a5
 8002396:	2f7010ef          	jal	ra,8003e8c <xTaskCheckForTimeOut>
 800239a:	87aa                	mv	a5,a0
 800239c:	e3f9                	bnez	a5,8002462 <xQueueGenericSend+0x3a6>
		{
			if( prvIsQueueFull( pxQueue ) != pdFALSE )
 800239e:	fe842503          	lw	a0,-24(s0)
 80023a2:	3bf000ef          	jal	ra,8002f60 <prvIsQueueFull>
 80023a6:	87aa                	mv	a5,a0
 80023a8:	c7d5                	beqz	a5,8002454 <xQueueGenericSend+0x398>
			{
				traceBLOCKING_ON_QUEUE_SEND( pxQueue );
				vTaskPlaceOnEventList( &( pxQueue->xTasksWaitingToSend ), xTicksToWait );
 80023aa:	fe842783          	lw	a5,-24(s0)
 80023ae:	01078693          	addi	a3,a5,16
 80023b2:	f6042703          	lw	a4,-160(s0)
 80023b6:	f6442783          	lw	a5,-156(s0)
 80023ba:	85ba                	mv	a1,a4
 80023bc:	863e                	mv	a2,a5
 80023be:	8536                	mv	a0,a3
 80023c0:	0b5010ef          	jal	ra,8003c74 <vTaskPlaceOnEventList>
				/* Unlocking the queue means queue events can effect the
				event list.  It is possible that interrupts occurring now
				remove this task from the event list again - but as the
				scheduler is suspended the task will go onto the pending
				ready last instead of the actual ready list. */
				prvUnlockQueue( pxQueue );
 80023c4:	fe842503          	lw	a0,-24(s0)
 80023c8:	297000ef          	jal	ra,8002e5e <prvUnlockQueue>
				/* Resuming the scheduler will move tasks from the pending
				ready list into the ready list - so it is feasible that this
				task is already in a ready list before it yields - in which
				case the yield will not cause a context switch unless there
				is also a higher priority task in the pending ready list. */
				if( xTaskResumeAll() == pdFALSE )
 80023cc:	2c0010ef          	jal	ra,800368c <xTaskResumeAll>
 80023d0:	87aa                	mv	a5,a0
 80023d2:	de0799e3          	bnez	a5,80021c4 <xQueueGenericSend+0x108>
    id = __RV_CSR_READ(CSR_MHARTID) & 0xFF;
 80023d6:	f14027f3          	csrr	a5,mhartid
 80023da:	faf42223          	sw	a5,-92(s0)
 80023de:	fa442783          	lw	a5,-92(s0)
 80023e2:	0ff7f793          	zext.b	a5,a5
 80023e6:	faf42023          	sw	a5,-96(s0)
    return id;
 80023ea:	fa042783          	lw	a5,-96(s0)
    unsigned long hartid = __get_hart_id();
 80023ee:	f8f42e23          	sw	a5,-100(s0)
 80023f2:	f9c42783          	lw	a5,-100(s0)
 80023f6:	f8f42c23          	sw	a5,-104(s0)
    if (hartid == 0) {
 80023fa:	f9842783          	lw	a5,-104(s0)
 80023fe:	e385                	bnez	a5,800241e <xQueueGenericSend+0x362>
        SysTimer->MSIP |= SysTimer_MSIP_MSIP_Msk;
 8002400:	00030737          	lui	a4,0x30
 8002404:	6785                	lui	a5,0x1
 8002406:	97ba                	add	a5,a5,a4
 8002408:	ffc7a783          	lw	a5,-4(a5) # ffc <__HEAP_SIZE+0x7fc>
 800240c:	000306b7          	lui	a3,0x30
 8002410:	0017e713          	ori	a4,a5,1
 8002414:	6785                	lui	a5,0x1
 8002416:	97b6                	add	a5,a5,a3
 8002418:	fee7ae23          	sw	a4,-4(a5) # ffc <__HEAP_SIZE+0x7fc>
}
 800241c:	a03d                	j	800244a <xQueueGenericSend+0x38e>
        uint8_t *addr = (uint8_t *)(SysTimer_CLINT_MSIP_BASE(hartid));
 800241e:	f9842783          	lw	a5,-104(s0)
 8002422:	00279713          	slli	a4,a5,0x2
 8002426:	000317b7          	lui	a5,0x31
 800242a:	97ba                	add	a5,a5,a4
 800242c:	f8f42a23          	sw	a5,-108(s0)
 8002430:	f9442783          	lw	a5,-108(s0)
 8002434:	f8f42823          	sw	a5,-112(s0)
 8002438:	4785                	li	a5,1
 800243a:	f8f42623          	sw	a5,-116(s0)
    __ASM volatile ("sw %0, 0(%1)" : : "r" (val), "r" (addr));
 800243e:	f8c42783          	lw	a5,-116(s0)
 8002442:	f9042703          	lw	a4,-112(s0)
 8002446:	c31c                	sw	a5,0(a4)
}
 8002448:	0001                	nop
}
 800244a:	0001                	nop
}
 800244c:	0001                	nop
				{
					portYIELD_WITHIN_API();
 800244e:	0ff0000f          	fence
 8002452:	bb8d                	j	80021c4 <xQueueGenericSend+0x108>
				}
			}
			else
			{
				/* Try again. */
				prvUnlockQueue( pxQueue );
 8002454:	fe842503          	lw	a0,-24(s0)
 8002458:	207000ef          	jal	ra,8002e5e <prvUnlockQueue>
				( void ) xTaskResumeAll();
 800245c:	230010ef          	jal	ra,800368c <xTaskResumeAll>
 8002460:	b395                	j	80021c4 <xQueueGenericSend+0x108>
			}
		}
		else
		{
			/* The timeout has expired. */
			prvUnlockQueue( pxQueue );
 8002462:	fe842503          	lw	a0,-24(s0)
 8002466:	1f9000ef          	jal	ra,8002e5e <prvUnlockQueue>
			( void ) xTaskResumeAll();
 800246a:	222010ef          	jal	ra,800368c <xTaskResumeAll>

			traceQUEUE_SEND_FAILED( pxQueue );
			return errQUEUE_FULL;
 800246e:	4781                	li	a5,0
		}
	} /*lint -restore */
}
 8002470:	853e                	mv	a0,a5
 8002472:	50ba                	lw	ra,172(sp)
 8002474:	542a                	lw	s0,168(sp)
 8002476:	614d                	addi	sp,sp,176
 8002478:	8082                	ret

0800247a <xQueueGenericSendFromISR>:
/*-----------------------------------------------------------*/

BaseType_t xQueueGenericSendFromISR( QueueHandle_t xQueue, const void * const pvItemToQueue, BaseType_t * const pxHigherPriorityTaskWoken, const BaseType_t xCopyPosition )
{
 800247a:	7139                	addi	sp,sp,-64
 800247c:	de06                	sw	ra,60(sp)
 800247e:	dc22                	sw	s0,56(sp)
 8002480:	0080                	addi	s0,sp,64
 8002482:	fca42623          	sw	a0,-52(s0)
 8002486:	fcb42423          	sw	a1,-56(s0)
 800248a:	fcc42223          	sw	a2,-60(s0)
 800248e:	fcd42023          	sw	a3,-64(s0)
BaseType_t xReturn;
UBaseType_t uxSavedInterruptStatus;
Queue_t * const pxQueue = xQueue;
 8002492:	fcc42783          	lw	a5,-52(s0)
 8002496:	fef42423          	sw	a5,-24(s0)

	configASSERT( pxQueue );
 800249a:	fe842783          	lw	a5,-24(s0)
 800249e:	e395                	bnez	a5,80024c2 <xQueueGenericSendFromISR+0x48>
    ECLIC_SetMth(uxMaxSysCallMTH);
 80024a0:	081177b7          	lui	a5,0x8117
 80024a4:	7f47c783          	lbu	a5,2036(a5) # 81177f4 <uxMaxSysCallMTH>
 80024a8:	fcf40da3          	sb	a5,-37(s0)
    ECLIC->MTH = mth;
 80024ac:	000207b7          	lui	a5,0x20
 80024b0:	fdb44703          	lbu	a4,-37(s0)
 80024b4:	00e785a3          	sb	a4,11(a5) # 2000b <__HEAP_SIZE+0x1f80b>
}
 80024b8:	0001                	nop
    __RWMB();
 80024ba:	0ff0000f          	fence
}
 80024be:	0001                	nop
 80024c0:	a001                	j	80024c0 <xQueueGenericSendFromISR+0x46>
	configASSERT( !( ( pvItemToQueue == NULL ) && ( pxQueue->uxItemSize != ( UBaseType_t ) 0U ) ) );
 80024c2:	fc842783          	lw	a5,-56(s0)
 80024c6:	e789                	bnez	a5,80024d0 <xQueueGenericSendFromISR+0x56>
 80024c8:	fe842783          	lw	a5,-24(s0)
 80024cc:	47bc                	lw	a5,72(a5)
 80024ce:	e399                	bnez	a5,80024d4 <xQueueGenericSendFromISR+0x5a>
 80024d0:	4785                	li	a5,1
 80024d2:	a011                	j	80024d6 <xQueueGenericSendFromISR+0x5c>
 80024d4:	4781                	li	a5,0
 80024d6:	e395                	bnez	a5,80024fa <xQueueGenericSendFromISR+0x80>
    ECLIC_SetMth(uxMaxSysCallMTH);
 80024d8:	081177b7          	lui	a5,0x8117
 80024dc:	7f47c783          	lbu	a5,2036(a5) # 81177f4 <uxMaxSysCallMTH>
 80024e0:	fcf40d23          	sb	a5,-38(s0)
    ECLIC->MTH = mth;
 80024e4:	000207b7          	lui	a5,0x20
 80024e8:	fda44703          	lbu	a4,-38(s0)
 80024ec:	00e785a3          	sb	a4,11(a5) # 2000b <__HEAP_SIZE+0x1f80b>
}
 80024f0:	0001                	nop
    __RWMB();
 80024f2:	0ff0000f          	fence
}
 80024f6:	0001                	nop
 80024f8:	a001                	j	80024f8 <xQueueGenericSendFromISR+0x7e>
	configASSERT( !( ( xCopyPosition == queueOVERWRITE ) && ( pxQueue->uxLength != 1 ) ) );
 80024fa:	fc042703          	lw	a4,-64(s0)
 80024fe:	4789                	li	a5,2
 8002500:	00f71863          	bne	a4,a5,8002510 <xQueueGenericSendFromISR+0x96>
 8002504:	fe842783          	lw	a5,-24(s0)
 8002508:	43f8                	lw	a4,68(a5)
 800250a:	4785                	li	a5,1
 800250c:	00f71463          	bne	a4,a5,8002514 <xQueueGenericSendFromISR+0x9a>
 8002510:	4785                	li	a5,1
 8002512:	a011                	j	8002516 <xQueueGenericSendFromISR+0x9c>
 8002514:	4781                	li	a5,0
 8002516:	e395                	bnez	a5,800253a <xQueueGenericSendFromISR+0xc0>
    ECLIC_SetMth(uxMaxSysCallMTH);
 8002518:	081177b7          	lui	a5,0x8117
 800251c:	7f47c783          	lbu	a5,2036(a5) # 81177f4 <uxMaxSysCallMTH>
 8002520:	fcf40ca3          	sb	a5,-39(s0)
    ECLIC->MTH = mth;
 8002524:	000207b7          	lui	a5,0x20
 8002528:	fd944703          	lbu	a4,-39(s0)
 800252c:	00e785a3          	sb	a4,11(a5) # 2000b <__HEAP_SIZE+0x1f80b>
}
 8002530:	0001                	nop
    __RWMB();
 8002532:	0ff0000f          	fence
}
 8002536:	0001                	nop
 8002538:	a001                	j	8002538 <xQueueGenericSendFromISR+0xbe>
	that have been assigned a priority at or (logically) below the maximum
	system call	interrupt priority.  FreeRTOS maintains a separate interrupt
	safe API to ensure interrupt entry is as fast and as simple as possible.
	More information (albeit Cortex-M specific) is provided on the following
	link: http://www.freertos.org/RTOS-Cortex-M3-M4.html */
	portASSERT_IF_INTERRUPT_PRIORITY_INVALID();
 800253a:	a22ff0ef          	jal	ra,800175c <vPortValidateInterruptPriority>
    return (ECLIC->MTH);
 800253e:	000207b7          	lui	a5,0x20
 8002542:	00b7c783          	lbu	a5,11(a5) # 2000b <__HEAP_SIZE+0x1f80b>
 8002546:	0ff7f793          	zext.b	a5,a5
    ulOriginalBASEPRI = ECLIC_GetMth();
 800254a:	fcf40c23          	sb	a5,-40(s0)
    ECLIC_SetMth(uxMaxSysCallMTH);
 800254e:	081177b7          	lui	a5,0x8117
 8002552:	7f47c783          	lbu	a5,2036(a5) # 81177f4 <uxMaxSysCallMTH>
 8002556:	fcf40ba3          	sb	a5,-41(s0)
    ECLIC->MTH = mth;
 800255a:	000207b7          	lui	a5,0x20
 800255e:	fd744703          	lbu	a4,-41(s0)
 8002562:	00e785a3          	sb	a4,11(a5) # 2000b <__HEAP_SIZE+0x1f80b>
}
 8002566:	0001                	nop
    __RWMB();
 8002568:	0ff0000f          	fence
    return ulOriginalBASEPRI;
 800256c:	fd844783          	lbu	a5,-40(s0)
	/* Similar to xQueueGenericSend, except without blocking if there is no room
	in the queue.  Also don't directly wake a task that was blocked on a queue
	read, instead return a flag to say whether a context switch is required or
	not (i.e. has a task with a higher priority than us been woken by this
	post). */
	uxSavedInterruptStatus = portSET_INTERRUPT_MASK_FROM_ISR();
 8002570:	fef42223          	sw	a5,-28(s0)
	{
		if( ( pxQueue->uxMessagesWaiting < pxQueue->uxLength ) || ( xCopyPosition == queueOVERWRITE ) )
 8002574:	fe842783          	lw	a5,-24(s0)
 8002578:	43b8                	lw	a4,64(a5)
 800257a:	fe842783          	lw	a5,-24(s0)
 800257e:	43fc                	lw	a5,68(a5)
 8002580:	00f76763          	bltu	a4,a5,800258e <xQueueGenericSendFromISR+0x114>
 8002584:	fc042703          	lw	a4,-64(s0)
 8002588:	4789                	li	a5,2
 800258a:	08f71063          	bne	a4,a5,800260a <xQueueGenericSendFromISR+0x190>
		{
			const int8_t cTxLock = pxQueue->cTxLock;
 800258e:	fe842783          	lw	a5,-24(s0)
 8002592:	04d7c783          	lbu	a5,77(a5)
 8002596:	fef401a3          	sb	a5,-29(s0)
			const UBaseType_t uxPreviousMessagesWaiting = pxQueue->uxMessagesWaiting;
 800259a:	fe842783          	lw	a5,-24(s0)
 800259e:	43bc                	lw	a5,64(a5)
 80025a0:	fcf42e23          	sw	a5,-36(s0)
			/* Semaphores use xQueueGiveFromISR(), so pxQueue will not be a
			semaphore or mutex.  That means prvCopyDataToQueue() cannot result
			in a task disinheriting a priority and prvCopyDataToQueue() can be
			called here even though the disinherit function does not check if
			the scheduler is suspended before accessing the ready lists. */
			( void ) prvCopyDataToQueue( pxQueue, pvItemToQueue, xCopyPosition );
 80025a4:	fc042603          	lw	a2,-64(s0)
 80025a8:	fc842583          	lw	a1,-56(s0)
 80025ac:	fe842503          	lw	a0,-24(s0)
 80025b0:	71a000ef          	jal	ra,8002cca <prvCopyDataToQueue>

			/* The event list is not altered if the queue is locked.  This will
			be done when the queue is unlocked later. */
			if( cTxLock == queueUNLOCKED )
 80025b4:	fe344783          	lbu	a5,-29(s0)
 80025b8:	07e2                	slli	a5,a5,0x18
 80025ba:	87e1                	srai	a5,a5,0x18
 80025bc:	577d                	li	a4,-1
 80025be:	02e79763          	bne	a5,a4,80025ec <xQueueGenericSendFromISR+0x172>
						}
					}
				}
				#else /* configUSE_QUEUE_SETS */
				{
					if( listLIST_IS_EMPTY( &( pxQueue->xTasksWaitingToReceive ) ) == pdFALSE )
 80025c2:	fe842783          	lw	a5,-24(s0)
 80025c6:	579c                	lw	a5,40(a5)
 80025c8:	cf8d                	beqz	a5,8002602 <xQueueGenericSendFromISR+0x188>
					{
						if( xTaskRemoveFromEventList( &( pxQueue->xTasksWaitingToReceive ) ) != pdFALSE )
 80025ca:	fe842783          	lw	a5,-24(s0)
 80025ce:	02878793          	addi	a5,a5,40
 80025d2:	853e                	mv	a0,a5
 80025d4:	78c010ef          	jal	ra,8003d60 <xTaskRemoveFromEventList>
 80025d8:	87aa                	mv	a5,a0
 80025da:	c785                	beqz	a5,8002602 <xQueueGenericSendFromISR+0x188>
						{
							/* The task waiting has a higher priority so record that a
							context	switch is required. */
							if( pxHigherPriorityTaskWoken != NULL )
 80025dc:	fc442783          	lw	a5,-60(s0)
 80025e0:	c38d                	beqz	a5,8002602 <xQueueGenericSendFromISR+0x188>
							{
								*pxHigherPriorityTaskWoken = pdTRUE;
 80025e2:	fc442783          	lw	a5,-60(s0)
 80025e6:	4705                	li	a4,1
 80025e8:	c398                	sw	a4,0(a5)
 80025ea:	a821                	j	8002602 <xQueueGenericSendFromISR+0x188>
			}
			else
			{
				/* Increment the lock count so the task that unlocks the queue
				knows that data was posted while it was locked. */
				pxQueue->cTxLock = ( int8_t ) ( cTxLock + 1 );
 80025ec:	fe344783          	lbu	a5,-29(s0)
 80025f0:	0785                	addi	a5,a5,1
 80025f2:	0ff7f793          	zext.b	a5,a5
 80025f6:	07e2                	slli	a5,a5,0x18
 80025f8:	87e1                	srai	a5,a5,0x18
 80025fa:	fe842703          	lw	a4,-24(s0)
 80025fe:	04f706a3          	sb	a5,77(a4) # 3004d <__HEAP_SIZE+0x2f84d>
			}

			xReturn = pdPASS;
 8002602:	4785                	li	a5,1
 8002604:	fef42623          	sw	a5,-20(s0)
		{
 8002608:	a019                	j	800260e <xQueueGenericSendFromISR+0x194>
		}
		else
		{
			traceQUEUE_SEND_FROM_ISR_FAILED( pxQueue );
			xReturn = errQUEUE_FULL;
 800260a:	fe042623          	sw	zero,-20(s0)
		}
	}
	portCLEAR_INTERRUPT_MASK_FROM_ISR( uxSavedInterruptStatus );
 800260e:	fe442783          	lw	a5,-28(s0)
 8002612:	0ff7f793          	zext.b	a5,a5
 8002616:	fcf40b23          	sb	a5,-42(s0)
 800261a:	fd644783          	lbu	a5,-42(s0)
 800261e:	fcf40aa3          	sb	a5,-43(s0)
    ECLIC->MTH = mth;
 8002622:	000207b7          	lui	a5,0x20
 8002626:	fd544703          	lbu	a4,-43(s0)
 800262a:	00e785a3          	sb	a4,11(a5) # 2000b <__HEAP_SIZE+0x1f80b>
}
 800262e:	0001                	nop
    __RWMB();
 8002630:	0ff0000f          	fence
}
 8002634:	0001                	nop

	return xReturn;
 8002636:	fec42783          	lw	a5,-20(s0)
}
 800263a:	853e                	mv	a0,a5
 800263c:	50f2                	lw	ra,60(sp)
 800263e:	5462                	lw	s0,56(sp)
 8002640:	6121                	addi	sp,sp,64
 8002642:	8082                	ret

08002644 <xQueueReceive>:
	return xReturn;
}
/*-----------------------------------------------------------*/

BaseType_t xQueueReceive( QueueHandle_t xQueue, void * const pvBuffer, TickType_t xTicksToWait )
{
 8002644:	7119                	addi	sp,sp,-128
 8002646:	de86                	sw	ra,124(sp)
 8002648:	dca2                	sw	s0,120(sp)
 800264a:	0100                	addi	s0,sp,128
 800264c:	f8a42623          	sw	a0,-116(s0)
 8002650:	f8b42423          	sw	a1,-120(s0)
 8002654:	f8c42023          	sw	a2,-128(s0)
 8002658:	f8d42223          	sw	a3,-124(s0)
BaseType_t xEntryTimeSet = pdFALSE;
 800265c:	fe042623          	sw	zero,-20(s0)
TimeOut_t xTimeOut;
Queue_t * const pxQueue = xQueue;
 8002660:	f8c42783          	lw	a5,-116(s0)
 8002664:	fef42423          	sw	a5,-24(s0)

	/* Check the pointer is not NULL. */
	configASSERT( ( pxQueue ) );
 8002668:	fe842783          	lw	a5,-24(s0)
 800266c:	e395                	bnez	a5,8002690 <xQueueReceive+0x4c>
    ECLIC_SetMth(uxMaxSysCallMTH);
 800266e:	081177b7          	lui	a5,0x8117
 8002672:	7f47c783          	lbu	a5,2036(a5) # 81177f4 <uxMaxSysCallMTH>
 8002676:	fef401a3          	sb	a5,-29(s0)
    ECLIC->MTH = mth;
 800267a:	000207b7          	lui	a5,0x20
 800267e:	fe344703          	lbu	a4,-29(s0)
 8002682:	00e785a3          	sb	a4,11(a5) # 2000b <__HEAP_SIZE+0x1f80b>
}
 8002686:	0001                	nop
    __RWMB();
 8002688:	0ff0000f          	fence
}
 800268c:	0001                	nop
 800268e:	a001                	j	800268e <xQueueReceive+0x4a>

	/* The buffer into which data is received can only be NULL if the data size
	is zero (so no data is copied into the buffer). */
	configASSERT( !( ( ( pvBuffer ) == NULL ) && ( ( pxQueue )->uxItemSize != ( UBaseType_t ) 0U ) ) );
 8002690:	f8842783          	lw	a5,-120(s0)
 8002694:	e789                	bnez	a5,800269e <xQueueReceive+0x5a>
 8002696:	fe842783          	lw	a5,-24(s0)
 800269a:	47bc                	lw	a5,72(a5)
 800269c:	e399                	bnez	a5,80026a2 <xQueueReceive+0x5e>
 800269e:	4785                	li	a5,1
 80026a0:	a011                	j	80026a4 <xQueueReceive+0x60>
 80026a2:	4781                	li	a5,0
 80026a4:	e395                	bnez	a5,80026c8 <xQueueReceive+0x84>
    ECLIC_SetMth(uxMaxSysCallMTH);
 80026a6:	081177b7          	lui	a5,0x8117
 80026aa:	7f47c783          	lbu	a5,2036(a5) # 81177f4 <uxMaxSysCallMTH>
 80026ae:	fef40123          	sb	a5,-30(s0)
    ECLIC->MTH = mth;
 80026b2:	000207b7          	lui	a5,0x20
 80026b6:	fe244703          	lbu	a4,-30(s0)
 80026ba:	00e785a3          	sb	a4,11(a5) # 2000b <__HEAP_SIZE+0x1f80b>
}
 80026be:	0001                	nop
    __RWMB();
 80026c0:	0ff0000f          	fence
}
 80026c4:	0001                	nop
 80026c6:	a001                	j	80026c6 <xQueueReceive+0x82>

	/* Cannot block if the scheduler is suspended. */
	#if ( ( INCLUDE_xTaskGetSchedulerState == 1 ) || ( configUSE_TIMERS == 1 ) )
	{
		configASSERT( !( ( xTaskGetSchedulerState() == taskSCHEDULER_SUSPENDED ) && ( xTicksToWait != 0 ) ) );
 80026c8:	307010ef          	jal	ra,80041ce <xTaskGetSchedulerState>
 80026cc:	87aa                	mv	a5,a0
 80026ce:	eb81                	bnez	a5,80026de <xQueueReceive+0x9a>
 80026d0:	f8042603          	lw	a2,-128(s0)
 80026d4:	f8442683          	lw	a3,-124(s0)
 80026d8:	87b2                	mv	a5,a2
 80026da:	8fd5                	or	a5,a5,a3
 80026dc:	e399                	bnez	a5,80026e2 <xQueueReceive+0x9e>
 80026de:	4785                	li	a5,1
 80026e0:	a011                	j	80026e4 <xQueueReceive+0xa0>
 80026e2:	4781                	li	a5,0
 80026e4:	e395                	bnez	a5,8002708 <xQueueReceive+0xc4>
    ECLIC_SetMth(uxMaxSysCallMTH);
 80026e6:	081177b7          	lui	a5,0x8117
 80026ea:	7f47c783          	lbu	a5,2036(a5) # 81177f4 <uxMaxSysCallMTH>
 80026ee:	fef400a3          	sb	a5,-31(s0)
    ECLIC->MTH = mth;
 80026f2:	000207b7          	lui	a5,0x20
 80026f6:	fe144703          	lbu	a4,-31(s0)
 80026fa:	00e785a3          	sb	a4,11(a5) # 2000b <__HEAP_SIZE+0x1f80b>
}
 80026fe:	0001                	nop
    __RWMB();
 8002700:	0ff0000f          	fence
}
 8002704:	0001                	nop
 8002706:	a001                	j	8002706 <xQueueReceive+0xc2>
	/*lint -save -e904  This function relaxes the coding standard somewhat to
	allow return statements within the function itself.  This is done in the
	interest of execution time efficiency. */
	for( ;; )
	{
		taskENTER_CRITICAL();
 8002708:	deafe0ef          	jal	ra,8000cf2 <vPortEnterCritical>
		{
			const UBaseType_t uxMessagesWaiting = pxQueue->uxMessagesWaiting;
 800270c:	fe842783          	lw	a5,-24(s0)
 8002710:	43bc                	lw	a5,64(a5)
 8002712:	fef42223          	sw	a5,-28(s0)

			/* Is there data in the queue now?  To be running the calling task
			must be the highest priority task wanting to access the queue. */
			if( uxMessagesWaiting > ( UBaseType_t ) 0 )
 8002716:	fe442783          	lw	a5,-28(s0)
 800271a:	cbdd                	beqz	a5,80027d0 <xQueueReceive+0x18c>
			{
				/* Data available, remove one item. */
				prvCopyDataFromQueue( pxQueue, pvBuffer );
 800271c:	f8842583          	lw	a1,-120(s0)
 8002720:	fe842503          	lw	a0,-24(s0)
 8002724:	2dc1                	jal	8002df4 <prvCopyDataFromQueue>
				traceQUEUE_RECEIVE( pxQueue );
				pxQueue->uxMessagesWaiting = uxMessagesWaiting - ( UBaseType_t ) 1;
 8002726:	fe442783          	lw	a5,-28(s0)
 800272a:	fff78713          	addi	a4,a5,-1
 800272e:	fe842783          	lw	a5,-24(s0)
 8002732:	c3b8                	sw	a4,64(a5)

				/* There is now space in the queue, were any tasks waiting to
				post to the queue?  If so, unblock the highest priority waiting
				task. */
				if( listLIST_IS_EMPTY( &( pxQueue->xTasksWaitingToSend ) ) == pdFALSE )
 8002734:	fe842783          	lw	a5,-24(s0)
 8002738:	4b9c                	lw	a5,16(a5)
 800273a:	c7d9                	beqz	a5,80027c8 <xQueueReceive+0x184>
				{
					if( xTaskRemoveFromEventList( &( pxQueue->xTasksWaitingToSend ) ) != pdFALSE )
 800273c:	fe842783          	lw	a5,-24(s0)
 8002740:	07c1                	addi	a5,a5,16
 8002742:	853e                	mv	a0,a5
 8002744:	61c010ef          	jal	ra,8003d60 <xTaskRemoveFromEventList>
 8002748:	87aa                	mv	a5,a0
 800274a:	cfbd                	beqz	a5,80027c8 <xQueueReceive+0x184>
    id = __RV_CSR_READ(CSR_MHARTID) & 0xFF;
 800274c:	f14027f3          	csrr	a5,mhartid
 8002750:	fcf42e23          	sw	a5,-36(s0)
 8002754:	fdc42783          	lw	a5,-36(s0)
 8002758:	0ff7f793          	zext.b	a5,a5
 800275c:	fcf42c23          	sw	a5,-40(s0)
    return id;
 8002760:	fd842783          	lw	a5,-40(s0)
    unsigned long hartid = __get_hart_id();
 8002764:	fcf42a23          	sw	a5,-44(s0)
 8002768:	fd442783          	lw	a5,-44(s0)
 800276c:	fcf42823          	sw	a5,-48(s0)
    if (hartid == 0) {
 8002770:	fd042783          	lw	a5,-48(s0)
 8002774:	e385                	bnez	a5,8002794 <xQueueReceive+0x150>
        SysTimer->MSIP |= SysTimer_MSIP_MSIP_Msk;
 8002776:	00030737          	lui	a4,0x30
 800277a:	6785                	lui	a5,0x1
 800277c:	97ba                	add	a5,a5,a4
 800277e:	ffc7a783          	lw	a5,-4(a5) # ffc <__HEAP_SIZE+0x7fc>
 8002782:	000306b7          	lui	a3,0x30
 8002786:	0017e713          	ori	a4,a5,1
 800278a:	6785                	lui	a5,0x1
 800278c:	97b6                	add	a5,a5,a3
 800278e:	fee7ae23          	sw	a4,-4(a5) # ffc <__HEAP_SIZE+0x7fc>
}
 8002792:	a03d                	j	80027c0 <xQueueReceive+0x17c>
        uint8_t *addr = (uint8_t *)(SysTimer_CLINT_MSIP_BASE(hartid));
 8002794:	fd042783          	lw	a5,-48(s0)
 8002798:	00279713          	slli	a4,a5,0x2
 800279c:	000317b7          	lui	a5,0x31
 80027a0:	97ba                	add	a5,a5,a4
 80027a2:	fcf42623          	sw	a5,-52(s0)
 80027a6:	fcc42783          	lw	a5,-52(s0)
 80027aa:	fcf42423          	sw	a5,-56(s0)
 80027ae:	4785                	li	a5,1
 80027b0:	fcf42223          	sw	a5,-60(s0)
    __ASM volatile ("sw %0, 0(%1)" : : "r" (val), "r" (addr));
 80027b4:	fc442783          	lw	a5,-60(s0)
 80027b8:	fc842703          	lw	a4,-56(s0)
 80027bc:	c31c                	sw	a5,0(a4)
}
 80027be:	0001                	nop
}
 80027c0:	0001                	nop
}
 80027c2:	0001                	nop
					{
						queueYIELD_IF_USING_PREEMPTION();
 80027c4:	0ff0000f          	fence
				else
				{
					mtCOVERAGE_TEST_MARKER();
				}

				taskEXIT_CRITICAL();
 80027c8:	db4fe0ef          	jal	ra,8000d7c <vPortExitCritical>
				return pdPASS;
 80027cc:	4785                	li	a5,1
 80027ce:	aab9                	j	800292c <xQueueReceive+0x2e8>
			}
			else
			{
				if( xTicksToWait == ( TickType_t ) 0 )
 80027d0:	f8042603          	lw	a2,-128(s0)
 80027d4:	f8442683          	lw	a3,-124(s0)
 80027d8:	87b2                	mv	a5,a2
 80027da:	8fd5                	or	a5,a5,a3
 80027dc:	e789                	bnez	a5,80027e6 <xQueueReceive+0x1a2>
				{
					/* The queue was empty and no block time is specified (or
					the block time has expired) so leave now. */
					taskEXIT_CRITICAL();
 80027de:	d9efe0ef          	jal	ra,8000d7c <vPortExitCritical>
					traceQUEUE_RECEIVE_FAILED( pxQueue );
					return errQUEUE_EMPTY;
 80027e2:	4781                	li	a5,0
 80027e4:	a2a1                	j	800292c <xQueueReceive+0x2e8>
				}
				else if( xEntryTimeSet == pdFALSE )
 80027e6:	fec42783          	lw	a5,-20(s0)
 80027ea:	eb89                	bnez	a5,80027fc <xQueueReceive+0x1b8>
				{
					/* The queue was empty and a block time was specified so
					configure the timeout structure. */
					vTaskInternalSetTimeOutState( &xTimeOut );
 80027ec:	f9840793          	addi	a5,s0,-104
 80027f0:	853e                	mv	a0,a5
 80027f2:	666010ef          	jal	ra,8003e58 <vTaskInternalSetTimeOutState>
					xEntryTimeSet = pdTRUE;
 80027f6:	4785                	li	a5,1
 80027f8:	fef42623          	sw	a5,-20(s0)
					/* Entry time was already set. */
					mtCOVERAGE_TEST_MARKER();
				}
			}
		}
		taskEXIT_CRITICAL();
 80027fc:	d80fe0ef          	jal	ra,8000d7c <vPortExitCritical>

		/* Interrupts and other tasks can send to and receive from the queue
		now the critical section has been exited. */

		vTaskSuspendAll();
 8002800:	66b000ef          	jal	ra,800366a <vTaskSuspendAll>
		prvLockQueue( pxQueue );
 8002804:	ceefe0ef          	jal	ra,8000cf2 <vPortEnterCritical>
 8002808:	fe842783          	lw	a5,-24(s0)
 800280c:	04c7c783          	lbu	a5,76(a5) # 3104c <__HEAP_SIZE+0x3084c>
 8002810:	07e2                	slli	a5,a5,0x18
 8002812:	87e1                	srai	a5,a5,0x18
 8002814:	577d                	li	a4,-1
 8002816:	00e79663          	bne	a5,a4,8002822 <xQueueReceive+0x1de>
 800281a:	fe842783          	lw	a5,-24(s0)
 800281e:	04078623          	sb	zero,76(a5)
 8002822:	fe842783          	lw	a5,-24(s0)
 8002826:	04d7c783          	lbu	a5,77(a5)
 800282a:	07e2                	slli	a5,a5,0x18
 800282c:	87e1                	srai	a5,a5,0x18
 800282e:	577d                	li	a4,-1
 8002830:	00e79663          	bne	a5,a4,800283c <xQueueReceive+0x1f8>
 8002834:	fe842783          	lw	a5,-24(s0)
 8002838:	040786a3          	sb	zero,77(a5)
 800283c:	d40fe0ef          	jal	ra,8000d7c <vPortExitCritical>

		/* Update the timeout state to see if it has expired yet. */
		if( xTaskCheckForTimeOut( &xTimeOut, &xTicksToWait ) == pdFALSE )
 8002840:	f8040713          	addi	a4,s0,-128
 8002844:	f9840793          	addi	a5,s0,-104
 8002848:	85ba                	mv	a1,a4
 800284a:	853e                	mv	a0,a5
 800284c:	640010ef          	jal	ra,8003e8c <xTaskCheckForTimeOut>
 8002850:	87aa                	mv	a5,a0
 8002852:	e3e9                	bnez	a5,8002914 <xQueueReceive+0x2d0>
		{
			/* The timeout has not expired.  If the queue is still empty place
			the task on the list of tasks waiting to receive from the queue. */
			if( prvIsQueueEmpty( pxQueue ) != pdFALSE )
 8002854:	fe842503          	lw	a0,-24(s0)
 8002858:	6d2000ef          	jal	ra,8002f2a <prvIsQueueEmpty>
 800285c:	87aa                	mv	a5,a0
 800285e:	c7cd                	beqz	a5,8002908 <xQueueReceive+0x2c4>
			{
				traceBLOCKING_ON_QUEUE_RECEIVE( pxQueue );
				vTaskPlaceOnEventList( &( pxQueue->xTasksWaitingToReceive ), xTicksToWait );
 8002860:	fe842783          	lw	a5,-24(s0)
 8002864:	02878693          	addi	a3,a5,40
 8002868:	f8042703          	lw	a4,-128(s0)
 800286c:	f8442783          	lw	a5,-124(s0)
 8002870:	85ba                	mv	a1,a4
 8002872:	863e                	mv	a2,a5
 8002874:	8536                	mv	a0,a3
 8002876:	3fe010ef          	jal	ra,8003c74 <vTaskPlaceOnEventList>
				prvUnlockQueue( pxQueue );
 800287a:	fe842503          	lw	a0,-24(s0)
 800287e:	23c5                	jal	8002e5e <prvUnlockQueue>
				if( xTaskResumeAll() == pdFALSE )
 8002880:	60d000ef          	jal	ra,800368c <xTaskResumeAll>
 8002884:	87aa                	mv	a5,a0
 8002886:	e80791e3          	bnez	a5,8002708 <xQueueReceive+0xc4>
    id = __RV_CSR_READ(CSR_MHARTID) & 0xFF;
 800288a:	f14027f3          	csrr	a5,mhartid
 800288e:	fcf42023          	sw	a5,-64(s0)
 8002892:	fc042783          	lw	a5,-64(s0)
 8002896:	0ff7f793          	zext.b	a5,a5
 800289a:	faf42e23          	sw	a5,-68(s0)
    return id;
 800289e:	fbc42783          	lw	a5,-68(s0)
    unsigned long hartid = __get_hart_id();
 80028a2:	faf42c23          	sw	a5,-72(s0)
 80028a6:	fb842783          	lw	a5,-72(s0)
 80028aa:	faf42a23          	sw	a5,-76(s0)
    if (hartid == 0) {
 80028ae:	fb442783          	lw	a5,-76(s0)
 80028b2:	e385                	bnez	a5,80028d2 <xQueueReceive+0x28e>
        SysTimer->MSIP |= SysTimer_MSIP_MSIP_Msk;
 80028b4:	00030737          	lui	a4,0x30
 80028b8:	6785                	lui	a5,0x1
 80028ba:	97ba                	add	a5,a5,a4
 80028bc:	ffc7a783          	lw	a5,-4(a5) # ffc <__HEAP_SIZE+0x7fc>
 80028c0:	000306b7          	lui	a3,0x30
 80028c4:	0017e713          	ori	a4,a5,1
 80028c8:	6785                	lui	a5,0x1
 80028ca:	97b6                	add	a5,a5,a3
 80028cc:	fee7ae23          	sw	a4,-4(a5) # ffc <__HEAP_SIZE+0x7fc>
}
 80028d0:	a03d                	j	80028fe <xQueueReceive+0x2ba>
        uint8_t *addr = (uint8_t *)(SysTimer_CLINT_MSIP_BASE(hartid));
 80028d2:	fb442783          	lw	a5,-76(s0)
 80028d6:	00279713          	slli	a4,a5,0x2
 80028da:	000317b7          	lui	a5,0x31
 80028de:	97ba                	add	a5,a5,a4
 80028e0:	faf42823          	sw	a5,-80(s0)
 80028e4:	fb042783          	lw	a5,-80(s0)
 80028e8:	faf42623          	sw	a5,-84(s0)
 80028ec:	4785                	li	a5,1
 80028ee:	faf42423          	sw	a5,-88(s0)
    __ASM volatile ("sw %0, 0(%1)" : : "r" (val), "r" (addr));
 80028f2:	fa842783          	lw	a5,-88(s0)
 80028f6:	fac42703          	lw	a4,-84(s0)
 80028fa:	c31c                	sw	a5,0(a4)
}
 80028fc:	0001                	nop
}
 80028fe:	0001                	nop
}
 8002900:	0001                	nop
				{
					portYIELD_WITHIN_API();
 8002902:	0ff0000f          	fence
 8002906:	b509                	j	8002708 <xQueueReceive+0xc4>
			}
			else
			{
				/* The queue contains data again.  Loop back to try and read the
				data. */
				prvUnlockQueue( pxQueue );
 8002908:	fe842503          	lw	a0,-24(s0)
 800290c:	2b89                	jal	8002e5e <prvUnlockQueue>
				( void ) xTaskResumeAll();
 800290e:	57f000ef          	jal	ra,800368c <xTaskResumeAll>
 8002912:	bbdd                	j	8002708 <xQueueReceive+0xc4>
		}
		else
		{
			/* Timed out.  If there is no data in the queue exit, otherwise loop
			back and attempt to read the data. */
			prvUnlockQueue( pxQueue );
 8002914:	fe842503          	lw	a0,-24(s0)
 8002918:	2399                	jal	8002e5e <prvUnlockQueue>
			( void ) xTaskResumeAll();
 800291a:	573000ef          	jal	ra,800368c <xTaskResumeAll>

			if( prvIsQueueEmpty( pxQueue ) != pdFALSE )
 800291e:	fe842503          	lw	a0,-24(s0)
 8002922:	2521                	jal	8002f2a <prvIsQueueEmpty>
 8002924:	87aa                	mv	a5,a0
 8002926:	de0781e3          	beqz	a5,8002708 <xQueueReceive+0xc4>
			{
				traceQUEUE_RECEIVE_FAILED( pxQueue );
				return errQUEUE_EMPTY;
 800292a:	4781                	li	a5,0
			{
				mtCOVERAGE_TEST_MARKER();
			}
		}
	} /*lint -restore */
}
 800292c:	853e                	mv	a0,a5
 800292e:	50f6                	lw	ra,124(sp)
 8002930:	5466                	lw	s0,120(sp)
 8002932:	6109                	addi	sp,sp,128
 8002934:	8082                	ret

08002936 <xQueueSemaphoreTake>:
/*-----------------------------------------------------------*/

BaseType_t xQueueSemaphoreTake( QueueHandle_t xQueue, TickType_t xTicksToWait )
{
 8002936:	7175                	addi	sp,sp,-144
 8002938:	c706                	sw	ra,140(sp)
 800293a:	c522                	sw	s0,136(sp)
 800293c:	0900                	addi	s0,sp,144
 800293e:	f6a42e23          	sw	a0,-132(s0)
 8002942:	f6b42823          	sw	a1,-144(s0)
 8002946:	f6c42a23          	sw	a2,-140(s0)
BaseType_t xEntryTimeSet = pdFALSE;
 800294a:	fe042623          	sw	zero,-20(s0)
TimeOut_t xTimeOut;
Queue_t * const pxQueue = xQueue;
 800294e:	f7c42783          	lw	a5,-132(s0)
 8002952:	fef42223          	sw	a5,-28(s0)

#if( configUSE_MUTEXES == 1 )
	BaseType_t xInheritanceOccurred = pdFALSE;
 8002956:	fe042423          	sw	zero,-24(s0)
#endif

	/* Check the queue pointer is not NULL. */
	configASSERT( ( pxQueue ) );
 800295a:	fe442783          	lw	a5,-28(s0)
 800295e:	e395                	bnez	a5,8002982 <xQueueSemaphoreTake+0x4c>
    ECLIC_SetMth(uxMaxSysCallMTH);
 8002960:	081177b7          	lui	a5,0x8117
 8002964:	7f47c783          	lbu	a5,2036(a5) # 81177f4 <uxMaxSysCallMTH>
 8002968:	fcf40da3          	sb	a5,-37(s0)
    ECLIC->MTH = mth;
 800296c:	000207b7          	lui	a5,0x20
 8002970:	fdb44703          	lbu	a4,-37(s0)
 8002974:	00e785a3          	sb	a4,11(a5) # 2000b <__HEAP_SIZE+0x1f80b>
}
 8002978:	0001                	nop
    __RWMB();
 800297a:	0ff0000f          	fence
}
 800297e:	0001                	nop
 8002980:	a001                	j	8002980 <xQueueSemaphoreTake+0x4a>

	/* Check this really is a semaphore, in which case the item size will be
	0. */
	configASSERT( pxQueue->uxItemSize == 0 );
 8002982:	fe442783          	lw	a5,-28(s0)
 8002986:	47bc                	lw	a5,72(a5)
 8002988:	c395                	beqz	a5,80029ac <xQueueSemaphoreTake+0x76>
    ECLIC_SetMth(uxMaxSysCallMTH);
 800298a:	081177b7          	lui	a5,0x8117
 800298e:	7f47c783          	lbu	a5,2036(a5) # 81177f4 <uxMaxSysCallMTH>
 8002992:	fcf40d23          	sb	a5,-38(s0)
    ECLIC->MTH = mth;
 8002996:	000207b7          	lui	a5,0x20
 800299a:	fda44703          	lbu	a4,-38(s0)
 800299e:	00e785a3          	sb	a4,11(a5) # 2000b <__HEAP_SIZE+0x1f80b>
}
 80029a2:	0001                	nop
    __RWMB();
 80029a4:	0ff0000f          	fence
}
 80029a8:	0001                	nop
 80029aa:	a001                	j	80029aa <xQueueSemaphoreTake+0x74>

	/* Cannot block if the scheduler is suspended. */
	#if ( ( INCLUDE_xTaskGetSchedulerState == 1 ) || ( configUSE_TIMERS == 1 ) )
	{
		configASSERT( !( ( xTaskGetSchedulerState() == taskSCHEDULER_SUSPENDED ) && ( xTicksToWait != 0 ) ) );
 80029ac:	023010ef          	jal	ra,80041ce <xTaskGetSchedulerState>
 80029b0:	87aa                	mv	a5,a0
 80029b2:	eb81                	bnez	a5,80029c2 <xQueueSemaphoreTake+0x8c>
 80029b4:	f7042603          	lw	a2,-144(s0)
 80029b8:	f7442683          	lw	a3,-140(s0)
 80029bc:	87b2                	mv	a5,a2
 80029be:	8fd5                	or	a5,a5,a3
 80029c0:	e399                	bnez	a5,80029c6 <xQueueSemaphoreTake+0x90>
 80029c2:	4785                	li	a5,1
 80029c4:	a011                	j	80029c8 <xQueueSemaphoreTake+0x92>
 80029c6:	4781                	li	a5,0
 80029c8:	e395                	bnez	a5,80029ec <xQueueSemaphoreTake+0xb6>
    ECLIC_SetMth(uxMaxSysCallMTH);
 80029ca:	081177b7          	lui	a5,0x8117
 80029ce:	7f47c783          	lbu	a5,2036(a5) # 81177f4 <uxMaxSysCallMTH>
 80029d2:	fcf40ca3          	sb	a5,-39(s0)
    ECLIC->MTH = mth;
 80029d6:	000207b7          	lui	a5,0x20
 80029da:	fd944703          	lbu	a4,-39(s0)
 80029de:	00e785a3          	sb	a4,11(a5) # 2000b <__HEAP_SIZE+0x1f80b>
}
 80029e2:	0001                	nop
    __RWMB();
 80029e4:	0ff0000f          	fence
}
 80029e8:	0001                	nop
 80029ea:	a001                	j	80029ea <xQueueSemaphoreTake+0xb4>
	/*lint -save -e904 This function relaxes the coding standard somewhat to allow return
	statements within the function itself.  This is done in the interest
	of execution time efficiency. */
	for( ;; )
	{
		taskENTER_CRITICAL();
 80029ec:	b06fe0ef          	jal	ra,8000cf2 <vPortEnterCritical>
		{
			/* Semaphores are queues with an item size of 0, and where the
			number of messages in the queue is the semaphore's count value. */
			const UBaseType_t uxSemaphoreCount = pxQueue->uxMessagesWaiting;
 80029f0:	fe442783          	lw	a5,-28(s0)
 80029f4:	43bc                	lw	a5,64(a5)
 80029f6:	fef42023          	sw	a5,-32(s0)

			/* Is there data in the queue now?  To be running the calling task
			must be the highest priority task wanting to access the queue. */
			if( uxSemaphoreCount > ( UBaseType_t ) 0 )
 80029fa:	fe042783          	lw	a5,-32(s0)
 80029fe:	c3e1                	beqz	a5,8002abe <xQueueSemaphoreTake+0x188>
			{
				traceQUEUE_RECEIVE( pxQueue );

				/* Semaphores are queues with a data size of zero and where the
				messages waiting is the semaphore's count.  Reduce the count. */
				pxQueue->uxMessagesWaiting = uxSemaphoreCount - ( UBaseType_t ) 1;
 8002a00:	fe042783          	lw	a5,-32(s0)
 8002a04:	fff78713          	addi	a4,a5,-1
 8002a08:	fe442783          	lw	a5,-28(s0)
 8002a0c:	c3b8                	sw	a4,64(a5)

				#if ( configUSE_MUTEXES == 1 )
				{
					if( pxQueue->uxQueueType == queueQUEUE_IS_MUTEX )
 8002a0e:	fe442783          	lw	a5,-28(s0)
 8002a12:	439c                	lw	a5,0(a5)
 8002a14:	e799                	bnez	a5,8002a22 <xQueueSemaphoreTake+0xec>
					{
						/* Record the information required to implement
						priority inheritance should it become necessary. */
						pxQueue->u.xSemaphore.xMutexHolder = pvTaskIncrementMutexHeldCount();
 8002a16:	411010ef          	jal	ra,8004626 <pvTaskIncrementMutexHeldCount>
 8002a1a:	872a                	mv	a4,a0
 8002a1c:	fe442783          	lw	a5,-28(s0)
 8002a20:	c798                	sw	a4,8(a5)
				}
				#endif /* configUSE_MUTEXES */

				/* Check to see if other tasks are blocked waiting to give the
				semaphore, and if so, unblock the highest priority such task. */
				if( listLIST_IS_EMPTY( &( pxQueue->xTasksWaitingToSend ) ) == pdFALSE )
 8002a22:	fe442783          	lw	a5,-28(s0)
 8002a26:	4b9c                	lw	a5,16(a5)
 8002a28:	c7d9                	beqz	a5,8002ab6 <xQueueSemaphoreTake+0x180>
				{
					if( xTaskRemoveFromEventList( &( pxQueue->xTasksWaitingToSend ) ) != pdFALSE )
 8002a2a:	fe442783          	lw	a5,-28(s0)
 8002a2e:	07c1                	addi	a5,a5,16
 8002a30:	853e                	mv	a0,a5
 8002a32:	32e010ef          	jal	ra,8003d60 <xTaskRemoveFromEventList>
 8002a36:	87aa                	mv	a5,a0
 8002a38:	cfbd                	beqz	a5,8002ab6 <xQueueSemaphoreTake+0x180>
    id = __RV_CSR_READ(CSR_MHARTID) & 0xFF;
 8002a3a:	f14027f3          	csrr	a5,mhartid
 8002a3e:	fcf42a23          	sw	a5,-44(s0)
 8002a42:	fd442783          	lw	a5,-44(s0)
 8002a46:	0ff7f793          	zext.b	a5,a5
 8002a4a:	fcf42823          	sw	a5,-48(s0)
    return id;
 8002a4e:	fd042783          	lw	a5,-48(s0)
    unsigned long hartid = __get_hart_id();
 8002a52:	fcf42623          	sw	a5,-52(s0)
 8002a56:	fcc42783          	lw	a5,-52(s0)
 8002a5a:	fcf42423          	sw	a5,-56(s0)
    if (hartid == 0) {
 8002a5e:	fc842783          	lw	a5,-56(s0)
 8002a62:	e385                	bnez	a5,8002a82 <xQueueSemaphoreTake+0x14c>
        SysTimer->MSIP |= SysTimer_MSIP_MSIP_Msk;
 8002a64:	00030737          	lui	a4,0x30
 8002a68:	6785                	lui	a5,0x1
 8002a6a:	97ba                	add	a5,a5,a4
 8002a6c:	ffc7a783          	lw	a5,-4(a5) # ffc <__HEAP_SIZE+0x7fc>
 8002a70:	000306b7          	lui	a3,0x30
 8002a74:	0017e713          	ori	a4,a5,1
 8002a78:	6785                	lui	a5,0x1
 8002a7a:	97b6                	add	a5,a5,a3
 8002a7c:	fee7ae23          	sw	a4,-4(a5) # ffc <__HEAP_SIZE+0x7fc>
}
 8002a80:	a03d                	j	8002aae <xQueueSemaphoreTake+0x178>
        uint8_t *addr = (uint8_t *)(SysTimer_CLINT_MSIP_BASE(hartid));
 8002a82:	fc842783          	lw	a5,-56(s0)
 8002a86:	00279713          	slli	a4,a5,0x2
 8002a8a:	000317b7          	lui	a5,0x31
 8002a8e:	97ba                	add	a5,a5,a4
 8002a90:	fcf42223          	sw	a5,-60(s0)
 8002a94:	fc442783          	lw	a5,-60(s0)
 8002a98:	fcf42023          	sw	a5,-64(s0)
 8002a9c:	4785                	li	a5,1
 8002a9e:	faf42e23          	sw	a5,-68(s0)
    __ASM volatile ("sw %0, 0(%1)" : : "r" (val), "r" (addr));
 8002aa2:	fbc42783          	lw	a5,-68(s0)
 8002aa6:	fc042703          	lw	a4,-64(s0)
 8002aaa:	c31c                	sw	a5,0(a4)
}
 8002aac:	0001                	nop
}
 8002aae:	0001                	nop
}
 8002ab0:	0001                	nop
					{
						queueYIELD_IF_USING_PREEMPTION();
 8002ab2:	0ff0000f          	fence
				else
				{
					mtCOVERAGE_TEST_MARKER();
				}

				taskEXIT_CRITICAL();
 8002ab6:	ac6fe0ef          	jal	ra,8000d7c <vPortExitCritical>
				return pdPASS;
 8002aba:	4785                	li	a5,1
 8002abc:	a2f9                	j	8002c8a <xQueueSemaphoreTake+0x354>
			}
			else
			{
				if( xTicksToWait == ( TickType_t ) 0 )
 8002abe:	f7042603          	lw	a2,-144(s0)
 8002ac2:	f7442683          	lw	a3,-140(s0)
 8002ac6:	87b2                	mv	a5,a2
 8002ac8:	8fd5                	or	a5,a5,a3
 8002aca:	eb8d                	bnez	a5,8002afc <xQueueSemaphoreTake+0x1c6>
					/* For inheritance to have occurred there must have been an
					initial timeout, and an adjusted timeout cannot become 0, as
					if it were 0 the function would have exited. */
					#if( configUSE_MUTEXES == 1 )
					{
						configASSERT( xInheritanceOccurred == pdFALSE );
 8002acc:	fe842783          	lw	a5,-24(s0)
 8002ad0:	c395                	beqz	a5,8002af4 <xQueueSemaphoreTake+0x1be>
    ECLIC_SetMth(uxMaxSysCallMTH);
 8002ad2:	081177b7          	lui	a5,0x8117
 8002ad6:	7f47c783          	lbu	a5,2036(a5) # 81177f4 <uxMaxSysCallMTH>
 8002ada:	faf40da3          	sb	a5,-69(s0)
    ECLIC->MTH = mth;
 8002ade:	000207b7          	lui	a5,0x20
 8002ae2:	fbb44703          	lbu	a4,-69(s0)
 8002ae6:	00e785a3          	sb	a4,11(a5) # 2000b <__HEAP_SIZE+0x1f80b>
}
 8002aea:	0001                	nop
    __RWMB();
 8002aec:	0ff0000f          	fence
}
 8002af0:	0001                	nop
 8002af2:	a001                	j	8002af2 <xQueueSemaphoreTake+0x1bc>
					}
					#endif /* configUSE_MUTEXES */

					/* The semaphore count was 0 and no block time is specified
					(or the block time has expired) so exit now. */
					taskEXIT_CRITICAL();
 8002af4:	a88fe0ef          	jal	ra,8000d7c <vPortExitCritical>
					traceQUEUE_RECEIVE_FAILED( pxQueue );
					return errQUEUE_EMPTY;
 8002af8:	4781                	li	a5,0
 8002afa:	aa41                	j	8002c8a <xQueueSemaphoreTake+0x354>
				}
				else if( xEntryTimeSet == pdFALSE )
 8002afc:	fec42783          	lw	a5,-20(s0)
 8002b00:	eb89                	bnez	a5,8002b12 <xQueueSemaphoreTake+0x1dc>
				{
					/* The semaphore count was 0 and a block time was specified
					so configure the timeout structure ready to block. */
					vTaskInternalSetTimeOutState( &xTimeOut );
 8002b02:	f8840793          	addi	a5,s0,-120
 8002b06:	853e                	mv	a0,a5
 8002b08:	350010ef          	jal	ra,8003e58 <vTaskInternalSetTimeOutState>
					xEntryTimeSet = pdTRUE;
 8002b0c:	4785                	li	a5,1
 8002b0e:	fef42623          	sw	a5,-20(s0)
					/* Entry time was already set. */
					mtCOVERAGE_TEST_MARKER();
				}
			}
		}
		taskEXIT_CRITICAL();
 8002b12:	a6afe0ef          	jal	ra,8000d7c <vPortExitCritical>

		/* Interrupts and other tasks can give to and take from the semaphore
		now the critical section has been exited. */

		vTaskSuspendAll();
 8002b16:	355000ef          	jal	ra,800366a <vTaskSuspendAll>
		prvLockQueue( pxQueue );
 8002b1a:	9d8fe0ef          	jal	ra,8000cf2 <vPortEnterCritical>
 8002b1e:	fe442783          	lw	a5,-28(s0)
 8002b22:	04c7c783          	lbu	a5,76(a5)
 8002b26:	07e2                	slli	a5,a5,0x18
 8002b28:	87e1                	srai	a5,a5,0x18
 8002b2a:	577d                	li	a4,-1
 8002b2c:	00e79663          	bne	a5,a4,8002b38 <xQueueSemaphoreTake+0x202>
 8002b30:	fe442783          	lw	a5,-28(s0)
 8002b34:	04078623          	sb	zero,76(a5)
 8002b38:	fe442783          	lw	a5,-28(s0)
 8002b3c:	04d7c783          	lbu	a5,77(a5)
 8002b40:	07e2                	slli	a5,a5,0x18
 8002b42:	87e1                	srai	a5,a5,0x18
 8002b44:	577d                	li	a4,-1
 8002b46:	00e79663          	bne	a5,a4,8002b52 <xQueueSemaphoreTake+0x21c>
 8002b4a:	fe442783          	lw	a5,-28(s0)
 8002b4e:	040786a3          	sb	zero,77(a5)
 8002b52:	a2afe0ef          	jal	ra,8000d7c <vPortExitCritical>

		/* Update the timeout state to see if it has expired yet. */
		if( xTaskCheckForTimeOut( &xTimeOut, &xTicksToWait ) == pdFALSE )
 8002b56:	f7040713          	addi	a4,s0,-144
 8002b5a:	f8840793          	addi	a5,s0,-120
 8002b5e:	85ba                	mv	a1,a4
 8002b60:	853e                	mv	a0,a5
 8002b62:	32a010ef          	jal	ra,8003e8c <xTaskCheckForTimeOut>
 8002b66:	87aa                	mv	a5,a0
 8002b68:	0e079163          	bnez	a5,8002c4a <xQueueSemaphoreTake+0x314>
		{
			/* A block time is specified and not expired.  If the semaphore
			count is 0 then enter the Blocked state to wait for a semaphore to
			become available.  As semaphores are implemented with queues the
			queue being empty is equivalent to the semaphore count being 0. */
			if( prvIsQueueEmpty( pxQueue ) != pdFALSE )
 8002b6c:	fe442503          	lw	a0,-28(s0)
 8002b70:	2e6d                	jal	8002f2a <prvIsQueueEmpty>
 8002b72:	87aa                	mv	a5,a0
 8002b74:	c7e9                	beqz	a5,8002c3e <xQueueSemaphoreTake+0x308>
			{
				traceBLOCKING_ON_QUEUE_RECEIVE( pxQueue );

				#if ( configUSE_MUTEXES == 1 )
				{
					if( pxQueue->uxQueueType == queueQUEUE_IS_MUTEX )
 8002b76:	fe442783          	lw	a5,-28(s0)
 8002b7a:	439c                	lw	a5,0(a5)
 8002b7c:	ef89                	bnez	a5,8002b96 <xQueueSemaphoreTake+0x260>
					{
						taskENTER_CRITICAL();
 8002b7e:	974fe0ef          	jal	ra,8000cf2 <vPortEnterCritical>
						{
							xInheritanceOccurred = xTaskPriorityInherit( pxQueue->u.xSemaphore.xMutexHolder );
 8002b82:	fe442783          	lw	a5,-28(s0)
 8002b86:	479c                	lw	a5,8(a5)
 8002b88:	853e                	mv	a0,a5
 8002b8a:	67e010ef          	jal	ra,8004208 <xTaskPriorityInherit>
 8002b8e:	fea42423          	sw	a0,-24(s0)
						}
						taskEXIT_CRITICAL();
 8002b92:	9eafe0ef          	jal	ra,8000d7c <vPortExitCritical>
						mtCOVERAGE_TEST_MARKER();
					}
				}
				#endif

				vTaskPlaceOnEventList( &( pxQueue->xTasksWaitingToReceive ), xTicksToWait );
 8002b96:	fe442783          	lw	a5,-28(s0)
 8002b9a:	02878693          	addi	a3,a5,40
 8002b9e:	f7042703          	lw	a4,-144(s0)
 8002ba2:	f7442783          	lw	a5,-140(s0)
 8002ba6:	85ba                	mv	a1,a4
 8002ba8:	863e                	mv	a2,a5
 8002baa:	8536                	mv	a0,a3
 8002bac:	0c8010ef          	jal	ra,8003c74 <vTaskPlaceOnEventList>
				prvUnlockQueue( pxQueue );
 8002bb0:	fe442503          	lw	a0,-28(s0)
 8002bb4:	246d                	jal	8002e5e <prvUnlockQueue>
				if( xTaskResumeAll() == pdFALSE )
 8002bb6:	2d7000ef          	jal	ra,800368c <xTaskResumeAll>
 8002bba:	87aa                	mv	a5,a0
 8002bbc:	e20798e3          	bnez	a5,80029ec <xQueueSemaphoreTake+0xb6>
    id = __RV_CSR_READ(CSR_MHARTID) & 0xFF;
 8002bc0:	f14027f3          	csrr	a5,mhartid
 8002bc4:	faf42a23          	sw	a5,-76(s0)
 8002bc8:	fb442783          	lw	a5,-76(s0)
 8002bcc:	0ff7f793          	zext.b	a5,a5
 8002bd0:	faf42823          	sw	a5,-80(s0)
    return id;
 8002bd4:	fb042783          	lw	a5,-80(s0)
    unsigned long hartid = __get_hart_id();
 8002bd8:	faf42623          	sw	a5,-84(s0)
 8002bdc:	fac42783          	lw	a5,-84(s0)
 8002be0:	faf42423          	sw	a5,-88(s0)
    if (hartid == 0) {
 8002be4:	fa842783          	lw	a5,-88(s0)
 8002be8:	e385                	bnez	a5,8002c08 <xQueueSemaphoreTake+0x2d2>
        SysTimer->MSIP |= SysTimer_MSIP_MSIP_Msk;
 8002bea:	00030737          	lui	a4,0x30
 8002bee:	6785                	lui	a5,0x1
 8002bf0:	97ba                	add	a5,a5,a4
 8002bf2:	ffc7a783          	lw	a5,-4(a5) # ffc <__HEAP_SIZE+0x7fc>
 8002bf6:	000306b7          	lui	a3,0x30
 8002bfa:	0017e713          	ori	a4,a5,1
 8002bfe:	6785                	lui	a5,0x1
 8002c00:	97b6                	add	a5,a5,a3
 8002c02:	fee7ae23          	sw	a4,-4(a5) # ffc <__HEAP_SIZE+0x7fc>
}
 8002c06:	a03d                	j	8002c34 <xQueueSemaphoreTake+0x2fe>
        uint8_t *addr = (uint8_t *)(SysTimer_CLINT_MSIP_BASE(hartid));
 8002c08:	fa842783          	lw	a5,-88(s0)
 8002c0c:	00279713          	slli	a4,a5,0x2
 8002c10:	000317b7          	lui	a5,0x31
 8002c14:	97ba                	add	a5,a5,a4
 8002c16:	faf42223          	sw	a5,-92(s0)
 8002c1a:	fa442783          	lw	a5,-92(s0)
 8002c1e:	faf42023          	sw	a5,-96(s0)
 8002c22:	4785                	li	a5,1
 8002c24:	f8f42e23          	sw	a5,-100(s0)
    __ASM volatile ("sw %0, 0(%1)" : : "r" (val), "r" (addr));
 8002c28:	f9c42783          	lw	a5,-100(s0)
 8002c2c:	fa042703          	lw	a4,-96(s0)
 8002c30:	c31c                	sw	a5,0(a4)
}
 8002c32:	0001                	nop
}
 8002c34:	0001                	nop
}
 8002c36:	0001                	nop
				{
					portYIELD_WITHIN_API();
 8002c38:	0ff0000f          	fence
 8002c3c:	bb45                	j	80029ec <xQueueSemaphoreTake+0xb6>
			}
			else
			{
				/* There was no timeout and the semaphore count was not 0, so
				attempt to take the semaphore again. */
				prvUnlockQueue( pxQueue );
 8002c3e:	fe442503          	lw	a0,-28(s0)
 8002c42:	2c31                	jal	8002e5e <prvUnlockQueue>
				( void ) xTaskResumeAll();
 8002c44:	249000ef          	jal	ra,800368c <xTaskResumeAll>
 8002c48:	b355                	j	80029ec <xQueueSemaphoreTake+0xb6>
			}
		}
		else
		{
			/* Timed out. */
			prvUnlockQueue( pxQueue );
 8002c4a:	fe442503          	lw	a0,-28(s0)
 8002c4e:	2c01                	jal	8002e5e <prvUnlockQueue>
			( void ) xTaskResumeAll();
 8002c50:	23d000ef          	jal	ra,800368c <xTaskResumeAll>

			/* If the semaphore count is 0 exit now as the timeout has
			expired.  Otherwise return to attempt to take the semaphore that is
			known to be available.  As semaphores are implemented by queues the
			queue being empty is equivalent to the semaphore count being 0. */
			if( prvIsQueueEmpty( pxQueue ) != pdFALSE )
 8002c54:	fe442503          	lw	a0,-28(s0)
 8002c58:	2cc9                	jal	8002f2a <prvIsQueueEmpty>
 8002c5a:	87aa                	mv	a5,a0
 8002c5c:	d80788e3          	beqz	a5,80029ec <xQueueSemaphoreTake+0xb6>
				#if ( configUSE_MUTEXES == 1 )
				{
					/* xInheritanceOccurred could only have be set if
					pxQueue->uxQueueType == queueQUEUE_IS_MUTEX so no need to
					test the mutex type again to check it is actually a mutex. */
					if( xInheritanceOccurred != pdFALSE )
 8002c60:	fe842783          	lw	a5,-24(s0)
 8002c64:	c395                	beqz	a5,8002c88 <xQueueSemaphoreTake+0x352>
					{
						taskENTER_CRITICAL();
 8002c66:	88cfe0ef          	jal	ra,8000cf2 <vPortEnterCritical>
							/* This task blocking on the mutex caused another
							task to inherit this task's priority.  Now this task
							has timed out the priority should be disinherited
							again, but only as low as the next highest priority
							task that is waiting for the same mutex. */
							uxHighestWaitingPriority = prvGetDisinheritPriorityAfterTimeout( pxQueue );
 8002c6a:	fe442503          	lw	a0,-28(s0)
 8002c6e:	201d                	jal	8002c94 <prvGetDisinheritPriorityAfterTimeout>
 8002c70:	fca42e23          	sw	a0,-36(s0)
							vTaskPriorityDisinheritAfterTimeout( pxQueue->u.xSemaphore.xMutexHolder, uxHighestWaitingPriority );
 8002c74:	fe442783          	lw	a5,-28(s0)
 8002c78:	479c                	lw	a5,8(a5)
 8002c7a:	fdc42583          	lw	a1,-36(s0)
 8002c7e:	853e                	mv	a0,a5
 8002c80:	015010ef          	jal	ra,8004494 <vTaskPriorityDisinheritAfterTimeout>
						}
						taskEXIT_CRITICAL();
 8002c84:	8f8fe0ef          	jal	ra,8000d7c <vPortExitCritical>
					}
				}
				#endif /* configUSE_MUTEXES */

				traceQUEUE_RECEIVE_FAILED( pxQueue );
				return errQUEUE_EMPTY;
 8002c88:	4781                	li	a5,0
			{
				mtCOVERAGE_TEST_MARKER();
			}
		}
	} /*lint -restore */
}
 8002c8a:	853e                	mv	a0,a5
 8002c8c:	40ba                	lw	ra,140(sp)
 8002c8e:	442a                	lw	s0,136(sp)
 8002c90:	6149                	addi	sp,sp,144
 8002c92:	8082                	ret

08002c94 <prvGetDisinheritPriorityAfterTimeout>:
/*-----------------------------------------------------------*/

#if( configUSE_MUTEXES == 1 )

	static UBaseType_t prvGetDisinheritPriorityAfterTimeout( const Queue_t * const pxQueue )
	{
 8002c94:	7179                	addi	sp,sp,-48
 8002c96:	d622                	sw	s0,44(sp)
 8002c98:	1800                	addi	s0,sp,48
 8002c9a:	fca42e23          	sw	a0,-36(s0)
		priority, but the waiting task times out, then the holder should
		disinherit the priority - but only down to the highest priority of any
		other tasks that are waiting for the same mutex.  For this purpose,
		return the priority of the highest priority task that is waiting for the
		mutex. */
		if( listCURRENT_LIST_LENGTH( &( pxQueue->xTasksWaitingToReceive ) ) > 0U )
 8002c9e:	fdc42783          	lw	a5,-36(s0)
 8002ca2:	579c                	lw	a5,40(a5)
 8002ca4:	cb99                	beqz	a5,8002cba <prvGetDisinheritPriorityAfterTimeout+0x26>
		{
			uxHighestPriorityOfWaitingTasks = ( UBaseType_t ) configMAX_PRIORITIES - ( UBaseType_t ) listGET_ITEM_VALUE_OF_HEAD_ENTRY( &( pxQueue->xTasksWaitingToReceive ) );
 8002ca6:	fdc42783          	lw	a5,-36(s0)
 8002caa:	5f9c                	lw	a5,56(a5)
 8002cac:	4398                	lw	a4,0(a5)
 8002cae:	43dc                	lw	a5,4(a5)
 8002cb0:	47a1                	li	a5,8
 8002cb2:	8f99                	sub	a5,a5,a4
 8002cb4:	fef42623          	sw	a5,-20(s0)
 8002cb8:	a019                	j	8002cbe <prvGetDisinheritPriorityAfterTimeout+0x2a>
		}
		else
		{
			uxHighestPriorityOfWaitingTasks = tskIDLE_PRIORITY;
 8002cba:	fe042623          	sw	zero,-20(s0)
		}

		return uxHighestPriorityOfWaitingTasks;
 8002cbe:	fec42783          	lw	a5,-20(s0)
	}
 8002cc2:	853e                	mv	a0,a5
 8002cc4:	5432                	lw	s0,44(sp)
 8002cc6:	6145                	addi	sp,sp,48
 8002cc8:	8082                	ret

08002cca <prvCopyDataToQueue>:

#endif /* configUSE_MUTEXES */
/*-----------------------------------------------------------*/

static BaseType_t prvCopyDataToQueue( Queue_t * const pxQueue, const void *pvItemToQueue, const BaseType_t xPosition )
{
 8002cca:	7179                	addi	sp,sp,-48
 8002ccc:	d606                	sw	ra,44(sp)
 8002cce:	d422                	sw	s0,40(sp)
 8002cd0:	1800                	addi	s0,sp,48
 8002cd2:	fca42e23          	sw	a0,-36(s0)
 8002cd6:	fcb42c23          	sw	a1,-40(s0)
 8002cda:	fcc42a23          	sw	a2,-44(s0)
BaseType_t xReturn = pdFALSE;
 8002cde:	fe042623          	sw	zero,-20(s0)
UBaseType_t uxMessagesWaiting;

	/* This function is called from a critical section. */

	uxMessagesWaiting = pxQueue->uxMessagesWaiting;
 8002ce2:	fdc42783          	lw	a5,-36(s0)
 8002ce6:	43bc                	lw	a5,64(a5)
 8002ce8:	fef42423          	sw	a5,-24(s0)

	if( pxQueue->uxItemSize == ( UBaseType_t ) 0 )
 8002cec:	fdc42783          	lw	a5,-36(s0)
 8002cf0:	47bc                	lw	a5,72(a5)
 8002cf2:	e395                	bnez	a5,8002d16 <prvCopyDataToQueue+0x4c>
	{
		#if ( configUSE_MUTEXES == 1 )
		{
			if( pxQueue->uxQueueType == queueQUEUE_IS_MUTEX )
 8002cf4:	fdc42783          	lw	a5,-36(s0)
 8002cf8:	439c                	lw	a5,0(a5)
 8002cfa:	eff9                	bnez	a5,8002dd8 <prvCopyDataToQueue+0x10e>
			{
				/* The mutex is no longer being held. */
				xReturn = xTaskPriorityDisinherit( pxQueue->u.xSemaphore.xMutexHolder );
 8002cfc:	fdc42783          	lw	a5,-36(s0)
 8002d00:	479c                	lw	a5,8(a5)
 8002d02:	853e                	mv	a0,a5
 8002d04:	646010ef          	jal	ra,800434a <xTaskPriorityDisinherit>
 8002d08:	fea42623          	sw	a0,-20(s0)
				pxQueue->u.xSemaphore.xMutexHolder = NULL;
 8002d0c:	fdc42783          	lw	a5,-36(s0)
 8002d10:	0007a423          	sw	zero,8(a5) # 31008 <__HEAP_SIZE+0x30808>
 8002d14:	a0d1                	j	8002dd8 <prvCopyDataToQueue+0x10e>
				mtCOVERAGE_TEST_MARKER();
			}
		}
		#endif /* configUSE_MUTEXES */
	}
	else if( xPosition == queueSEND_TO_BACK )
 8002d16:	fd442783          	lw	a5,-44(s0)
 8002d1a:	e7b1                	bnez	a5,8002d66 <prvCopyDataToQueue+0x9c>
	{
		( void ) memcpy( ( void * ) pxQueue->pcWriteTo, pvItemToQueue, ( size_t ) pxQueue->uxItemSize ); /*lint !e961 !e418 !e9087 MISRA exception as the casts are only redundant for some ports, plus previous logic ensures a null pointer can only be passed to memcpy() if the copy size is 0.  Cast to void required by function signature and safe as no alignment requirement and copy length specified in bytes. */
 8002d1c:	fdc42783          	lw	a5,-36(s0)
 8002d20:	43d8                	lw	a4,4(a5)
 8002d22:	fdc42783          	lw	a5,-36(s0)
 8002d26:	47bc                	lw	a5,72(a5)
 8002d28:	863e                	mv	a2,a5
 8002d2a:	fd842583          	lw	a1,-40(s0)
 8002d2e:	853a                	mv	a0,a4
 8002d30:	440130ef          	jal	ra,8016170 <memcpy>
		pxQueue->pcWriteTo += pxQueue->uxItemSize; /*lint !e9016 Pointer arithmetic on char types ok, especially in this use case where it is the clearest way of conveying intent. */
 8002d34:	fdc42783          	lw	a5,-36(s0)
 8002d38:	43d8                	lw	a4,4(a5)
 8002d3a:	fdc42783          	lw	a5,-36(s0)
 8002d3e:	47bc                	lw	a5,72(a5)
 8002d40:	973e                	add	a4,a4,a5
 8002d42:	fdc42783          	lw	a5,-36(s0)
 8002d46:	c3d8                	sw	a4,4(a5)
		if( pxQueue->pcWriteTo >= pxQueue->u.xQueue.pcTail ) /*lint !e946 MISRA exception justified as comparison of pointers is the cleanest solution. */
 8002d48:	fdc42783          	lw	a5,-36(s0)
 8002d4c:	43d8                	lw	a4,4(a5)
 8002d4e:	fdc42783          	lw	a5,-36(s0)
 8002d52:	479c                	lw	a5,8(a5)
 8002d54:	08f76263          	bltu	a4,a5,8002dd8 <prvCopyDataToQueue+0x10e>
		{
			pxQueue->pcWriteTo = pxQueue->pcHead;
 8002d58:	fdc42783          	lw	a5,-36(s0)
 8002d5c:	4398                	lw	a4,0(a5)
 8002d5e:	fdc42783          	lw	a5,-36(s0)
 8002d62:	c3d8                	sw	a4,4(a5)
 8002d64:	a895                	j	8002dd8 <prvCopyDataToQueue+0x10e>
			mtCOVERAGE_TEST_MARKER();
		}
	}
	else
	{
		( void ) memcpy( ( void * ) pxQueue->u.xQueue.pcReadFrom, pvItemToQueue, ( size_t ) pxQueue->uxItemSize ); /*lint !e961 !e9087 !e418 MISRA exception as the casts are only redundant for some ports.  Cast to void required by function signature and safe as no alignment requirement and copy length specified in bytes.  Assert checks null pointer only used when length is 0. */
 8002d66:	fdc42783          	lw	a5,-36(s0)
 8002d6a:	47d8                	lw	a4,12(a5)
 8002d6c:	fdc42783          	lw	a5,-36(s0)
 8002d70:	47bc                	lw	a5,72(a5)
 8002d72:	863e                	mv	a2,a5
 8002d74:	fd842583          	lw	a1,-40(s0)
 8002d78:	853a                	mv	a0,a4
 8002d7a:	3f6130ef          	jal	ra,8016170 <memcpy>
		pxQueue->u.xQueue.pcReadFrom -= pxQueue->uxItemSize;
 8002d7e:	fdc42783          	lw	a5,-36(s0)
 8002d82:	47d8                	lw	a4,12(a5)
 8002d84:	fdc42783          	lw	a5,-36(s0)
 8002d88:	47bc                	lw	a5,72(a5)
 8002d8a:	40f007b3          	neg	a5,a5
 8002d8e:	973e                	add	a4,a4,a5
 8002d90:	fdc42783          	lw	a5,-36(s0)
 8002d94:	c7d8                	sw	a4,12(a5)
		if( pxQueue->u.xQueue.pcReadFrom < pxQueue->pcHead ) /*lint !e946 MISRA exception justified as comparison of pointers is the cleanest solution. */
 8002d96:	fdc42783          	lw	a5,-36(s0)
 8002d9a:	47d8                	lw	a4,12(a5)
 8002d9c:	fdc42783          	lw	a5,-36(s0)
 8002da0:	439c                	lw	a5,0(a5)
 8002da2:	00f77e63          	bgeu	a4,a5,8002dbe <prvCopyDataToQueue+0xf4>
		{
			pxQueue->u.xQueue.pcReadFrom = ( pxQueue->u.xQueue.pcTail - pxQueue->uxItemSize );
 8002da6:	fdc42783          	lw	a5,-36(s0)
 8002daa:	4798                	lw	a4,8(a5)
 8002dac:	fdc42783          	lw	a5,-36(s0)
 8002db0:	47bc                	lw	a5,72(a5)
 8002db2:	40f007b3          	neg	a5,a5
 8002db6:	973e                	add	a4,a4,a5
 8002db8:	fdc42783          	lw	a5,-36(s0)
 8002dbc:	c7d8                	sw	a4,12(a5)
		else
		{
			mtCOVERAGE_TEST_MARKER();
		}

		if( xPosition == queueOVERWRITE )
 8002dbe:	fd442703          	lw	a4,-44(s0)
 8002dc2:	4789                	li	a5,2
 8002dc4:	00f71a63          	bne	a4,a5,8002dd8 <prvCopyDataToQueue+0x10e>
		{
			if( uxMessagesWaiting > ( UBaseType_t ) 0 )
 8002dc8:	fe842783          	lw	a5,-24(s0)
 8002dcc:	c791                	beqz	a5,8002dd8 <prvCopyDataToQueue+0x10e>
			{
				/* An item is not being added but overwritten, so subtract
				one from the recorded number of items in the queue so when
				one is added again below the number of recorded items remains
				correct. */
				--uxMessagesWaiting;
 8002dce:	fe842783          	lw	a5,-24(s0)
 8002dd2:	17fd                	addi	a5,a5,-1
 8002dd4:	fef42423          	sw	a5,-24(s0)
		{
			mtCOVERAGE_TEST_MARKER();
		}
	}

	pxQueue->uxMessagesWaiting = uxMessagesWaiting + ( UBaseType_t ) 1;
 8002dd8:	fe842783          	lw	a5,-24(s0)
 8002ddc:	00178713          	addi	a4,a5,1
 8002de0:	fdc42783          	lw	a5,-36(s0)
 8002de4:	c3b8                	sw	a4,64(a5)

	return xReturn;
 8002de6:	fec42783          	lw	a5,-20(s0)
}
 8002dea:	853e                	mv	a0,a5
 8002dec:	50b2                	lw	ra,44(sp)
 8002dee:	5422                	lw	s0,40(sp)
 8002df0:	6145                	addi	sp,sp,48
 8002df2:	8082                	ret

08002df4 <prvCopyDataFromQueue>:
/*-----------------------------------------------------------*/

static void prvCopyDataFromQueue( Queue_t * const pxQueue, void * const pvBuffer )
{
 8002df4:	1101                	addi	sp,sp,-32
 8002df6:	ce06                	sw	ra,28(sp)
 8002df8:	cc22                	sw	s0,24(sp)
 8002dfa:	1000                	addi	s0,sp,32
 8002dfc:	fea42623          	sw	a0,-20(s0)
 8002e00:	feb42423          	sw	a1,-24(s0)
	if( pxQueue->uxItemSize != ( UBaseType_t ) 0 )
 8002e04:	fec42783          	lw	a5,-20(s0)
 8002e08:	47bc                	lw	a5,72(a5)
 8002e0a:	c7a9                	beqz	a5,8002e54 <prvCopyDataFromQueue+0x60>
	{
		pxQueue->u.xQueue.pcReadFrom += pxQueue->uxItemSize; /*lint !e9016 Pointer arithmetic on char types ok, especially in this use case where it is the clearest way of conveying intent. */
 8002e0c:	fec42783          	lw	a5,-20(s0)
 8002e10:	47d8                	lw	a4,12(a5)
 8002e12:	fec42783          	lw	a5,-20(s0)
 8002e16:	47bc                	lw	a5,72(a5)
 8002e18:	973e                	add	a4,a4,a5
 8002e1a:	fec42783          	lw	a5,-20(s0)
 8002e1e:	c7d8                	sw	a4,12(a5)
		if( pxQueue->u.xQueue.pcReadFrom >= pxQueue->u.xQueue.pcTail ) /*lint !e946 MISRA exception justified as use of the relational operator is the cleanest solutions. */
 8002e20:	fec42783          	lw	a5,-20(s0)
 8002e24:	47d8                	lw	a4,12(a5)
 8002e26:	fec42783          	lw	a5,-20(s0)
 8002e2a:	479c                	lw	a5,8(a5)
 8002e2c:	00f76863          	bltu	a4,a5,8002e3c <prvCopyDataFromQueue+0x48>
		{
			pxQueue->u.xQueue.pcReadFrom = pxQueue->pcHead;
 8002e30:	fec42783          	lw	a5,-20(s0)
 8002e34:	4398                	lw	a4,0(a5)
 8002e36:	fec42783          	lw	a5,-20(s0)
 8002e3a:	c7d8                	sw	a4,12(a5)
		}
		else
		{
			mtCOVERAGE_TEST_MARKER();
		}
		( void ) memcpy( ( void * ) pvBuffer, ( void * ) pxQueue->u.xQueue.pcReadFrom, ( size_t ) pxQueue->uxItemSize ); /*lint !e961 !e418 !e9087 MISRA exception as the casts are only redundant for some ports.  Also previous logic ensures a null pointer can only be passed to memcpy() when the count is 0.  Cast to void required by function signature and safe as no alignment requirement and copy length specified in bytes. */
 8002e3c:	fec42783          	lw	a5,-20(s0)
 8002e40:	47d8                	lw	a4,12(a5)
 8002e42:	fec42783          	lw	a5,-20(s0)
 8002e46:	47bc                	lw	a5,72(a5)
 8002e48:	863e                	mv	a2,a5
 8002e4a:	85ba                	mv	a1,a4
 8002e4c:	fe842503          	lw	a0,-24(s0)
 8002e50:	320130ef          	jal	ra,8016170 <memcpy>
	}
}
 8002e54:	0001                	nop
 8002e56:	40f2                	lw	ra,28(sp)
 8002e58:	4462                	lw	s0,24(sp)
 8002e5a:	6105                	addi	sp,sp,32
 8002e5c:	8082                	ret

08002e5e <prvUnlockQueue>:
/*-----------------------------------------------------------*/

static void prvUnlockQueue( Queue_t * const pxQueue )
{
 8002e5e:	7179                	addi	sp,sp,-48
 8002e60:	d606                	sw	ra,44(sp)
 8002e62:	d422                	sw	s0,40(sp)
 8002e64:	1800                	addi	s0,sp,48
 8002e66:	fca42e23          	sw	a0,-36(s0)

	/* The lock counts contains the number of extra data items placed or
	removed from the queue while the queue was locked.  When a queue is
	locked items can be added or removed, but the event lists cannot be
	updated. */
	taskENTER_CRITICAL();
 8002e6a:	e89fd0ef          	jal	ra,8000cf2 <vPortEnterCritical>
	{
		int8_t cTxLock = pxQueue->cTxLock;
 8002e6e:	fdc42783          	lw	a5,-36(s0)
 8002e72:	04d7c783          	lbu	a5,77(a5)
 8002e76:	fef407a3          	sb	a5,-17(s0)

		/* See if data was added to the queue while it was locked. */
		while( cTxLock > queueLOCKED_UNMODIFIED )
 8002e7a:	a03d                	j	8002ea8 <prvUnlockQueue+0x4a>
			}
			#else /* configUSE_QUEUE_SETS */
			{
				/* Tasks that are removed from the event list will get added to
				the pending ready list as the scheduler is still suspended. */
				if( listLIST_IS_EMPTY( &( pxQueue->xTasksWaitingToReceive ) ) == pdFALSE )
 8002e7c:	fdc42783          	lw	a5,-36(s0)
 8002e80:	579c                	lw	a5,40(a5)
 8002e82:	cb95                	beqz	a5,8002eb6 <prvUnlockQueue+0x58>
				{
					if( xTaskRemoveFromEventList( &( pxQueue->xTasksWaitingToReceive ) ) != pdFALSE )
 8002e84:	fdc42783          	lw	a5,-36(s0)
 8002e88:	02878793          	addi	a5,a5,40
 8002e8c:	853e                	mv	a0,a5
 8002e8e:	6d3000ef          	jal	ra,8003d60 <xTaskRemoveFromEventList>
 8002e92:	87aa                	mv	a5,a0
